
Attiny85_IMU_FrameBuffer.elf:     file format elf32-avr

Sections:
Idx Name          Size      VMA       LMA       File off  Algn
  0 .text         00001c4e  00000000  00000000  00000094  2**1
                  CONTENTS, ALLOC, LOAD, READONLY, CODE
  1 .data         00000168  00800060  00001c4e  00001ce2  2**0
                  CONTENTS, ALLOC, LOAD, DATA
  2 .bss          00000045  008001c8  008001c8  00001e4a  2**0
                  ALLOC
  3 .comment      00000030  00000000  00000000  00001e4a  2**0
                  CONTENTS, READONLY
  4 .note.gnu.avr.deviceinfo 0000003c  00000000  00000000  00001e7c  2**2
                  CONTENTS, READONLY
  5 .debug_aranges 00000170  00000000  00000000  00001eb8  2**0
                  CONTENTS, READONLY, DEBUGGING
  6 .debug_info   0000293c  00000000  00000000  00002028  2**0
                  CONTENTS, READONLY, DEBUGGING
  7 .debug_abbrev 00000817  00000000  00000000  00004964  2**0
                  CONTENTS, READONLY, DEBUGGING
  8 .debug_line   00001270  00000000  00000000  0000517b  2**0
                  CONTENTS, READONLY, DEBUGGING
  9 .debug_frame  00000500  00000000  00000000  000063ec  2**2
                  CONTENTS, READONLY, DEBUGGING
 10 .debug_str    00000c48  00000000  00000000  000068ec  2**0
                  CONTENTS, READONLY, DEBUGGING
 11 .debug_loc    00001c6a  00000000  00000000  00007534  2**0
                  CONTENTS, READONLY, DEBUGGING
 12 .debug_ranges 00000160  00000000  00000000  0000919e  2**0
                  CONTENTS, READONLY, DEBUGGING

Disassembly of section .text:

00000000 <__vectors>:
       0:	c5 c0       	rjmp	.+394    	; 0x18c <__ctors_end>
       2:	df c0       	rjmp	.+446    	; 0x1c2 <__bad_interrupt>
       4:	de c0       	rjmp	.+444    	; 0x1c2 <__bad_interrupt>
       6:	dd c0       	rjmp	.+442    	; 0x1c2 <__bad_interrupt>
       8:	dc c0       	rjmp	.+440    	; 0x1c2 <__bad_interrupt>
       a:	db c0       	rjmp	.+438    	; 0x1c2 <__bad_interrupt>
       c:	da c0       	rjmp	.+436    	; 0x1c2 <__bad_interrupt>
       e:	d9 c0       	rjmp	.+434    	; 0x1c2 <__bad_interrupt>
      10:	d8 c0       	rjmp	.+432    	; 0x1c2 <__bad_interrupt>
      12:	d7 c0       	rjmp	.+430    	; 0x1c2 <__bad_interrupt>
      14:	d6 c0       	rjmp	.+428    	; 0x1c2 <__bad_interrupt>
      16:	d5 c0       	rjmp	.+426    	; 0x1c2 <__bad_interrupt>
      18:	d4 c0       	rjmp	.+424    	; 0x1c2 <__bad_interrupt>
      1a:	d3 c0       	rjmp	.+422    	; 0x1c2 <__bad_interrupt>
      1c:	d2 c0       	rjmp	.+420    	; 0x1c2 <__bad_interrupt>
      1e:	09 c4       	rjmp	.+2066   	; 0x832 <_Z11OLED_PrintfPKcz+0x1ce>
      20:	0d c4       	rjmp	.+2074   	; 0x83c <_Z11OLED_PrintfPKcz+0x1d8>
      22:	0c c4       	rjmp	.+2072   	; 0x83c <_Z11OLED_PrintfPKcz+0x1d8>
      24:	0b c4       	rjmp	.+2070   	; 0x83c <_Z11OLED_PrintfPKcz+0x1d8>
      26:	0a c4       	rjmp	.+2068   	; 0x83c <_Z11OLED_PrintfPKcz+0x1d8>
      28:	09 c4       	rjmp	.+2066   	; 0x83c <_Z11OLED_PrintfPKcz+0x1d8>
      2a:	08 c4       	rjmp	.+2064   	; 0x83c <_Z11OLED_PrintfPKcz+0x1d8>
      2c:	07 c4       	rjmp	.+2062   	; 0x83c <_Z11OLED_PrintfPKcz+0x1d8>
      2e:	06 c4       	rjmp	.+2060   	; 0x83c <_Z11OLED_PrintfPKcz+0x1d8>
      30:	05 c4       	rjmp	.+2058   	; 0x83c <_Z11OLED_PrintfPKcz+0x1d8>
      32:	04 c4       	rjmp	.+2056   	; 0x83c <_Z11OLED_PrintfPKcz+0x1d8>
      34:	03 c4       	rjmp	.+2054   	; 0x83c <_Z11OLED_PrintfPKcz+0x1d8>
      36:	02 c4       	rjmp	.+2052   	; 0x83c <_Z11OLED_PrintfPKcz+0x1d8>
      38:	01 c4       	rjmp	.+2050   	; 0x83c <_Z11OLED_PrintfPKcz+0x1d8>
      3a:	00 c4       	rjmp	.+2048   	; 0x83c <_Z11OLED_PrintfPKcz+0x1d8>
      3c:	ff c3       	rjmp	.+2046   	; 0x83c <_Z11OLED_PrintfPKcz+0x1d8>
      3e:	fe c3       	rjmp	.+2044   	; 0x83c <_Z11OLED_PrintfPKcz+0x1d8>
      40:	fd c3       	rjmp	.+2042   	; 0x83c <_Z11OLED_PrintfPKcz+0x1d8>
      42:	fc c3       	rjmp	.+2040   	; 0x83c <_Z11OLED_PrintfPKcz+0x1d8>
      44:	fb c3       	rjmp	.+2038   	; 0x83c <_Z11OLED_PrintfPKcz+0x1d8>
      46:	fa c3       	rjmp	.+2036   	; 0x83c <_Z11OLED_PrintfPKcz+0x1d8>
      48:	f9 c3       	rjmp	.+2034   	; 0x83c <_Z11OLED_PrintfPKcz+0x1d8>
      4a:	f8 c3       	rjmp	.+2032   	; 0x83c <_Z11OLED_PrintfPKcz+0x1d8>
      4c:	f7 c3       	rjmp	.+2030   	; 0x83c <_Z11OLED_PrintfPKcz+0x1d8>
      4e:	f6 c3       	rjmp	.+2028   	; 0x83c <_Z11OLED_PrintfPKcz+0x1d8>
      50:	f5 c3       	rjmp	.+2026   	; 0x83c <_Z11OLED_PrintfPKcz+0x1d8>
      52:	f4 c3       	rjmp	.+2024   	; 0x83c <_Z11OLED_PrintfPKcz+0x1d8>
      54:	f3 c3       	rjmp	.+2022   	; 0x83c <_Z11OLED_PrintfPKcz+0x1d8>
      56:	f2 c3       	rjmp	.+2020   	; 0x83c <_Z11OLED_PrintfPKcz+0x1d8>
      58:	ca c3       	rjmp	.+1940   	; 0x7ee <_Z11OLED_PrintfPKcz+0x18a>
      5a:	51 c3       	rjmp	.+1698   	; 0x6fe <_Z11OLED_PrintfPKcz+0x9a>
      5c:	6f c3       	rjmp	.+1758   	; 0x73c <_Z11OLED_PrintfPKcz+0xd8>
      5e:	ee c3       	rjmp	.+2012   	; 0x83c <_Z11OLED_PrintfPKcz+0x1d8>
      60:	d5 c3       	rjmp	.+1962   	; 0x80c <_Z11OLED_PrintfPKcz+0x1a8>
      62:	ec c3       	rjmp	.+2008   	; 0x83c <_Z11OLED_PrintfPKcz+0x1d8>
      64:	eb c3       	rjmp	.+2006   	; 0x83c <_Z11OLED_PrintfPKcz+0x1d8>
      66:	ea c3       	rjmp	.+2004   	; 0x83c <_Z11OLED_PrintfPKcz+0x1d8>
      68:	e9 c3       	rjmp	.+2002   	; 0x83c <_Z11OLED_PrintfPKcz+0x1d8>
      6a:	e8 c3       	rjmp	.+2000   	; 0x83c <_Z11OLED_PrintfPKcz+0x1d8>
      6c:	e7 c3       	rjmp	.+1998   	; 0x83c <_Z11OLED_PrintfPKcz+0x1d8>
      6e:	e6 c3       	rjmp	.+1996   	; 0x83c <_Z11OLED_PrintfPKcz+0x1d8>
      70:	e5 c3       	rjmp	.+1994   	; 0x83c <_Z11OLED_PrintfPKcz+0x1d8>
      72:	e4 c3       	rjmp	.+1992   	; 0x83c <_Z11OLED_PrintfPKcz+0x1d8>
      74:	e3 c3       	rjmp	.+1990   	; 0x83c <_Z11OLED_PrintfPKcz+0x1d8>
      76:	e2 c3       	rjmp	.+1988   	; 0x83c <_Z11OLED_PrintfPKcz+0x1d8>
      78:	e1 c3       	rjmp	.+1986   	; 0x83c <_Z11OLED_PrintfPKcz+0x1d8>
      7a:	d1 c3       	rjmp	.+1954   	; 0x81e <_Z11OLED_PrintfPKcz+0x1ba>
      7c:	df c3       	rjmp	.+1982   	; 0x83c <_Z11OLED_PrintfPKcz+0x1d8>
      7e:	84 c3       	rjmp	.+1800   	; 0x788 <_Z11OLED_PrintfPKcz+0x124>
      80:	dd c3       	rjmp	.+1978   	; 0x83c <_Z11OLED_PrintfPKcz+0x1d8>
      82:	dc c3       	rjmp	.+1976   	; 0x83c <_Z11OLED_PrintfPKcz+0x1d8>
      84:	99 c3       	rjmp	.+1842   	; 0x7b8 <_Z11OLED_PrintfPKcz+0x154>
      86:	da c3       	rjmp	.+1972   	; 0x83c <_Z11OLED_PrintfPKcz+0x1d8>
      88:	d9 c3       	rjmp	.+1970   	; 0x83c <_Z11OLED_PrintfPKcz+0x1d8>
      8a:	d8 c3       	rjmp	.+1968   	; 0x83c <_Z11OLED_PrintfPKcz+0x1d8>
      8c:	d7 c3       	rjmp	.+1966   	; 0x83c <_Z11OLED_PrintfPKcz+0x1d8>
      8e:	d6 c3       	rjmp	.+1964   	; 0x83c <_Z11OLED_PrintfPKcz+0x1d8>
      90:	d5 c3       	rjmp	.+1962   	; 0x83c <_Z11OLED_PrintfPKcz+0x1d8>
      92:	d4 c3       	rjmp	.+1960   	; 0x83c <_Z11OLED_PrintfPKcz+0x1d8>
      94:	d3 c3       	rjmp	.+1958   	; 0x83c <_Z11OLED_PrintfPKcz+0x1d8>
      96:	d2 c3       	rjmp	.+1956   	; 0x83c <_Z11OLED_PrintfPKcz+0x1d8>
      98:	9b c3       	rjmp	.+1846   	; 0x7d0 <_Z11OLED_PrintfPKcz+0x16c>
      9a:	31 c3       	rjmp	.+1634   	; 0x6fe <_Z11OLED_PrintfPKcz+0x9a>
      9c:	3a c3       	rjmp	.+1652   	; 0x712 <_Z11OLED_PrintfPKcz+0xae>
      9e:	ce c3       	rjmp	.+1948   	; 0x83c <_Z11OLED_PrintfPKcz+0x1d8>
      a0:	b5 c3       	rjmp	.+1898   	; 0x80c <_Z11OLED_PrintfPKcz+0x1a8>
      a2:	cc c3       	rjmp	.+1944   	; 0x83c <_Z11OLED_PrintfPKcz+0x1d8>
      a4:	cb c3       	rjmp	.+1942   	; 0x83c <_Z11OLED_PrintfPKcz+0x1d8>
      a6:	ca c3       	rjmp	.+1940   	; 0x83c <_Z11OLED_PrintfPKcz+0x1d8>
      a8:	c9 c3       	rjmp	.+1938   	; 0x83c <_Z11OLED_PrintfPKcz+0x1d8>
      aa:	c8 c3       	rjmp	.+1936   	; 0x83c <_Z11OLED_PrintfPKcz+0x1d8>
      ac:	c7 c3       	rjmp	.+1934   	; 0x83c <_Z11OLED_PrintfPKcz+0x1d8>
      ae:	c6 c3       	rjmp	.+1932   	; 0x83c <_Z11OLED_PrintfPKcz+0x1d8>
      b0:	c5 c3       	rjmp	.+1930   	; 0x83c <_Z11OLED_PrintfPKcz+0x1d8>
      b2:	c4 c3       	rjmp	.+1928   	; 0x83c <_Z11OLED_PrintfPKcz+0x1d8>
      b4:	c3 c3       	rjmp	.+1926   	; 0x83c <_Z11OLED_PrintfPKcz+0x1d8>
      b6:	c2 c3       	rjmp	.+1924   	; 0x83c <_Z11OLED_PrintfPKcz+0x1d8>
      b8:	c1 c3       	rjmp	.+1922   	; 0x83c <_Z11OLED_PrintfPKcz+0x1d8>
      ba:	b1 c3       	rjmp	.+1890   	; 0x81e <_Z11OLED_PrintfPKcz+0x1ba>
      bc:	bf c3       	rjmp	.+1918   	; 0x83c <_Z11OLED_PrintfPKcz+0x1d8>
      be:	58 c3       	rjmp	.+1712   	; 0x770 <_Z11OLED_PrintfPKcz+0x10c>
      c0:	bd c3       	rjmp	.+1914   	; 0x83c <_Z11OLED_PrintfPKcz+0x1d8>
      c2:	bc c3       	rjmp	.+1912   	; 0x83c <_Z11OLED_PrintfPKcz+0x1d8>
      c4:	6d c3       	rjmp	.+1754   	; 0x7a0 <_Z11OLED_PrintfPKcz+0x13c>
      c6:	b5 c3       	rjmp	.+1898   	; 0x832 <_Z11OLED_PrintfPKcz+0x1ce>
      c8:	b9 c3       	rjmp	.+1906   	; 0x83c <_Z11OLED_PrintfPKcz+0x1d8>
      ca:	b8 c3       	rjmp	.+1904   	; 0x83c <_Z11OLED_PrintfPKcz+0x1d8>
      cc:	b7 c3       	rjmp	.+1902   	; 0x83c <_Z11OLED_PrintfPKcz+0x1d8>
      ce:	b6 c3       	rjmp	.+1900   	; 0x83c <_Z11OLED_PrintfPKcz+0x1d8>
      d0:	b5 c3       	rjmp	.+1898   	; 0x83c <_Z11OLED_PrintfPKcz+0x1d8>
      d2:	b4 c3       	rjmp	.+1896   	; 0x83c <_Z11OLED_PrintfPKcz+0x1d8>
      d4:	b3 c3       	rjmp	.+1894   	; 0x83c <_Z11OLED_PrintfPKcz+0x1d8>
      d6:	b2 c3       	rjmp	.+1892   	; 0x83c <_Z11OLED_PrintfPKcz+0x1d8>
      d8:	b1 c3       	rjmp	.+1890   	; 0x83c <_Z11OLED_PrintfPKcz+0x1d8>
      da:	b0 c3       	rjmp	.+1888   	; 0x83c <_Z11OLED_PrintfPKcz+0x1d8>
      dc:	af c3       	rjmp	.+1886   	; 0x83c <_Z11OLED_PrintfPKcz+0x1d8>
      de:	ae c3       	rjmp	.+1884   	; 0x83c <_Z11OLED_PrintfPKcz+0x1d8>
      e0:	ad c3       	rjmp	.+1882   	; 0x83c <_Z11OLED_PrintfPKcz+0x1d8>
      e2:	ac c3       	rjmp	.+1880   	; 0x83c <_Z11OLED_PrintfPKcz+0x1d8>
      e4:	ab c3       	rjmp	.+1878   	; 0x83c <_Z11OLED_PrintfPKcz+0x1d8>
      e6:	aa c3       	rjmp	.+1876   	; 0x83c <_Z11OLED_PrintfPKcz+0x1d8>
      e8:	a9 c3       	rjmp	.+1874   	; 0x83c <_Z11OLED_PrintfPKcz+0x1d8>
      ea:	a8 c3       	rjmp	.+1872   	; 0x83c <_Z11OLED_PrintfPKcz+0x1d8>
      ec:	a7 c3       	rjmp	.+1870   	; 0x83c <_Z11OLED_PrintfPKcz+0x1d8>
      ee:	a6 c3       	rjmp	.+1868   	; 0x83c <_Z11OLED_PrintfPKcz+0x1d8>
      f0:	a5 c3       	rjmp	.+1866   	; 0x83c <_Z11OLED_PrintfPKcz+0x1d8>
      f2:	a4 c3       	rjmp	.+1864   	; 0x83c <_Z11OLED_PrintfPKcz+0x1d8>
      f4:	a3 c3       	rjmp	.+1862   	; 0x83c <_Z11OLED_PrintfPKcz+0x1d8>
      f6:	a2 c3       	rjmp	.+1860   	; 0x83c <_Z11OLED_PrintfPKcz+0x1d8>
      f8:	a1 c3       	rjmp	.+1858   	; 0x83c <_Z11OLED_PrintfPKcz+0x1d8>
      fa:	a0 c3       	rjmp	.+1856   	; 0x83c <_Z11OLED_PrintfPKcz+0x1d8>
      fc:	9f c3       	rjmp	.+1854   	; 0x83c <_Z11OLED_PrintfPKcz+0x1d8>
      fe:	9e c3       	rjmp	.+1852   	; 0x83c <_Z11OLED_PrintfPKcz+0x1d8>
     100:	a7 c3       	rjmp	.+1870   	; 0x850 <_Z11OLED_PrintfPKcz+0x1ec>
     102:	fd c2       	rjmp	.+1530   	; 0x6fe <_Z11OLED_PrintfPKcz+0x9a>
     104:	1a c3       	rjmp	.+1588   	; 0x73a <_Z11OLED_PrintfPKcz+0xd6>
     106:	9a c3       	rjmp	.+1844   	; 0x83c <_Z11OLED_PrintfPKcz+0x1d8>
     108:	81 c3       	rjmp	.+1794   	; 0x80c <_Z11OLED_PrintfPKcz+0x1a8>
     10a:	98 c3       	rjmp	.+1840   	; 0x83c <_Z11OLED_PrintfPKcz+0x1d8>
     10c:	97 c3       	rjmp	.+1838   	; 0x83c <_Z11OLED_PrintfPKcz+0x1d8>
     10e:	96 c3       	rjmp	.+1836   	; 0x83c <_Z11OLED_PrintfPKcz+0x1d8>
     110:	95 c3       	rjmp	.+1834   	; 0x83c <_Z11OLED_PrintfPKcz+0x1d8>
     112:	94 c3       	rjmp	.+1832   	; 0x83c <_Z11OLED_PrintfPKcz+0x1d8>
     114:	93 c3       	rjmp	.+1830   	; 0x83c <_Z11OLED_PrintfPKcz+0x1d8>
     116:	92 c3       	rjmp	.+1828   	; 0x83c <_Z11OLED_PrintfPKcz+0x1d8>
     118:	91 c3       	rjmp	.+1826   	; 0x83c <_Z11OLED_PrintfPKcz+0x1d8>
     11a:	90 c3       	rjmp	.+1824   	; 0x83c <_Z11OLED_PrintfPKcz+0x1d8>
     11c:	8f c3       	rjmp	.+1822   	; 0x83c <_Z11OLED_PrintfPKcz+0x1d8>
     11e:	8e c3       	rjmp	.+1820   	; 0x83c <_Z11OLED_PrintfPKcz+0x1d8>
     120:	8d c3       	rjmp	.+1818   	; 0x83c <_Z11OLED_PrintfPKcz+0x1d8>
     122:	7d c3       	rjmp	.+1786   	; 0x81e <_Z11OLED_PrintfPKcz+0x1ba>
     124:	8b c3       	rjmp	.+1814   	; 0x83c <_Z11OLED_PrintfPKcz+0x1d8>
     126:	2f c3       	rjmp	.+1630   	; 0x786 <_Z11OLED_PrintfPKcz+0x122>
     128:	89 c3       	rjmp	.+1810   	; 0x83c <_Z11OLED_PrintfPKcz+0x1d8>
     12a:	88 c3       	rjmp	.+1808   	; 0x83c <_Z11OLED_PrintfPKcz+0x1d8>
     12c:	44 c3       	rjmp	.+1672   	; 0x7b6 <_Z11OLED_PrintfPKcz+0x152>
     12e:	86 c3       	rjmp	.+1804   	; 0x83c <_Z11OLED_PrintfPKcz+0x1d8>
     130:	85 c3       	rjmp	.+1802   	; 0x83c <_Z11OLED_PrintfPKcz+0x1d8>
     132:	84 c3       	rjmp	.+1800   	; 0x83c <_Z11OLED_PrintfPKcz+0x1d8>
     134:	83 c3       	rjmp	.+1798   	; 0x83c <_Z11OLED_PrintfPKcz+0x1d8>
     136:	82 c3       	rjmp	.+1796   	; 0x83c <_Z11OLED_PrintfPKcz+0x1d8>
     138:	81 c3       	rjmp	.+1794   	; 0x83c <_Z11OLED_PrintfPKcz+0x1d8>
     13a:	80 c3       	rjmp	.+1792   	; 0x83c <_Z11OLED_PrintfPKcz+0x1d8>
     13c:	7f c3       	rjmp	.+1790   	; 0x83c <_Z11OLED_PrintfPKcz+0x1d8>
     13e:	7e c3       	rjmp	.+1788   	; 0x83c <_Z11OLED_PrintfPKcz+0x1d8>
     140:	46 c3       	rjmp	.+1676   	; 0x7ce <_Z11OLED_PrintfPKcz+0x16a>
     142:	dd c2       	rjmp	.+1466   	; 0x6fe <_Z11OLED_PrintfPKcz+0x9a>
     144:	e5 c2       	rjmp	.+1482   	; 0x710 <_Z11OLED_PrintfPKcz+0xac>
     146:	7a c3       	rjmp	.+1780   	; 0x83c <_Z11OLED_PrintfPKcz+0x1d8>
     148:	61 c3       	rjmp	.+1730   	; 0x80c <_Z11OLED_PrintfPKcz+0x1a8>
     14a:	78 c3       	rjmp	.+1776   	; 0x83c <_Z11OLED_PrintfPKcz+0x1d8>
     14c:	77 c3       	rjmp	.+1774   	; 0x83c <_Z11OLED_PrintfPKcz+0x1d8>
     14e:	76 c3       	rjmp	.+1772   	; 0x83c <_Z11OLED_PrintfPKcz+0x1d8>
     150:	75 c3       	rjmp	.+1770   	; 0x83c <_Z11OLED_PrintfPKcz+0x1d8>
     152:	74 c3       	rjmp	.+1768   	; 0x83c <_Z11OLED_PrintfPKcz+0x1d8>
     154:	73 c3       	rjmp	.+1766   	; 0x83c <_Z11OLED_PrintfPKcz+0x1d8>
     156:	72 c3       	rjmp	.+1764   	; 0x83c <_Z11OLED_PrintfPKcz+0x1d8>
     158:	71 c3       	rjmp	.+1762   	; 0x83c <_Z11OLED_PrintfPKcz+0x1d8>
     15a:	70 c3       	rjmp	.+1760   	; 0x83c <_Z11OLED_PrintfPKcz+0x1d8>
     15c:	6f c3       	rjmp	.+1758   	; 0x83c <_Z11OLED_PrintfPKcz+0x1d8>
     15e:	6e c3       	rjmp	.+1756   	; 0x83c <_Z11OLED_PrintfPKcz+0x1d8>
     160:	6d c3       	rjmp	.+1754   	; 0x83c <_Z11OLED_PrintfPKcz+0x1d8>
     162:	5d c3       	rjmp	.+1722   	; 0x81e <_Z11OLED_PrintfPKcz+0x1ba>
     164:	6b c3       	rjmp	.+1750   	; 0x83c <_Z11OLED_PrintfPKcz+0x1d8>
     166:	03 c3       	rjmp	.+1542   	; 0x76e <_Z11OLED_PrintfPKcz+0x10a>
     168:	69 c3       	rjmp	.+1746   	; 0x83c <_Z11OLED_PrintfPKcz+0x1d8>
     16a:	68 c3       	rjmp	.+1744   	; 0x83c <_Z11OLED_PrintfPKcz+0x1d8>
     16c:	18 c3       	rjmp	.+1584   	; 0x79e <_Z11OLED_PrintfPKcz+0x13a>
     16e:	05 a8       	ldd	r0, Z+53	; 0x35
     170:	4c cd       	rjmp	.-1384   	; 0xfffffc0a <__eeprom_end+0xff7efc0a>
     172:	b2 d4       	rcall	.+2404   	; 0xad8 <main+0x6a>
     174:	4e b9       	out	0x0e, r20	; 14
     176:	38 36       	cpi	r19, 0x68	; 104
     178:	a9 02       	muls	r26, r25
     17a:	0c 50       	subi	r16, 0x0C	; 12
     17c:	b9 91       	ld	r27, Y+
     17e:	86 88       	ldd	r8, Z+22	; 0x16
     180:	08 3c       	cpi	r16, 0xC8	; 200
     182:	a6 aa       	std	Z+54, r10	; 0x36
     184:	aa 2a       	or	r10, r26
     186:	be 00       	.word	0x00be	; ????
     188:	00 00       	nop
     18a:	80 3f       	cpi	r24, 0xF0	; 240

0000018c <__ctors_end>:
     18c:	11 24       	eor	r1, r1
     18e:	1f be       	out	0x3f, r1	; 63
     190:	cf e5       	ldi	r28, 0x5F	; 95
     192:	d2 e0       	ldi	r29, 0x02	; 2
     194:	de bf       	out	0x3e, r29	; 62
     196:	cd bf       	out	0x3d, r28	; 61

00000198 <__do_copy_data>:
     198:	11 e0       	ldi	r17, 0x01	; 1
     19a:	a0 e6       	ldi	r26, 0x60	; 96
     19c:	b0 e0       	ldi	r27, 0x00	; 0
     19e:	ee e4       	ldi	r30, 0x4E	; 78
     1a0:	fc e1       	ldi	r31, 0x1C	; 28
     1a2:	02 c0       	rjmp	.+4      	; 0x1a8 <__do_copy_data+0x10>
     1a4:	05 90       	lpm	r0, Z+
     1a6:	0d 92       	st	X+, r0
     1a8:	a8 3c       	cpi	r26, 0xC8	; 200
     1aa:	b1 07       	cpc	r27, r17
     1ac:	d9 f7       	brne	.-10     	; 0x1a4 <__do_copy_data+0xc>

000001ae <__do_clear_bss>:
     1ae:	22 e0       	ldi	r18, 0x02	; 2
     1b0:	a8 ec       	ldi	r26, 0xC8	; 200
     1b2:	b1 e0       	ldi	r27, 0x01	; 1
     1b4:	01 c0       	rjmp	.+2      	; 0x1b8 <.do_clear_bss_start>

000001b6 <.do_clear_bss_loop>:
     1b6:	1d 92       	st	X+, r1

000001b8 <.do_clear_bss_start>:
     1b8:	ad 30       	cpi	r26, 0x0D	; 13
     1ba:	b2 07       	cpc	r27, r18
     1bc:	e1 f7       	brne	.-8      	; 0x1b6 <.do_clear_bss_loop>
     1be:	57 d4       	rcall	.+2222   	; 0xa6e <main>
     1c0:	44 cd       	rjmp	.-1400   	; 0xfffffc4a <__eeprom_end+0xff7efc4a>

000001c2 <__bad_interrupt>:
     1c2:	1e cf       	rjmp	.-452    	; 0x0 <__vectors>

000001c4 <_Z8i2c_initv>:
	//Read registers 0x20, 0x21
	uint8_t upperByte = IMU_readByte(0x21);			//Read the upper half of the signed int
	uint8_t lowerByte = IMU_readByte(0x20);			//Read the lower half of the signed int
	int temp = twoBytes2Int(upperByte, lowerByte);  //Put the two bytes into a signed int
	return temp;
}
     1c4:	c0 9a       	sbi	0x18, 0	; 24
     1c6:	c2 9a       	sbi	0x18, 2	; 24
     1c8:	ba 9a       	sbi	0x17, 2	; 23
     1ca:	b8 9a       	sbi	0x17, 0	; 23
     1cc:	8f ef       	ldi	r24, 0xFF	; 255
     1ce:	8f b9       	out	0x0f, r24	; 15
     1d0:	8a e2       	ldi	r24, 0x2A	; 42
     1d2:	8d b9       	out	0x0d, r24	; 13
     1d4:	80 ef       	ldi	r24, 0xF0	; 240
     1d6:	8e b9       	out	0x0e, r24	; 14
     1d8:	08 95       	ret

000001da <_Z23USI_I2C_Master_Transferh>:
     1da:	8e b9       	out	0x0e, r24	; 14
     1dc:	8b e2       	ldi	r24, 0x2B	; 43
     1de:	97 e0       	ldi	r25, 0x07	; 7
     1e0:	9a 95       	dec	r25
     1e2:	f1 f7       	brne	.-4      	; 0x1e0 <_Z23USI_I2C_Master_Transferh+0x6>
     1e4:	8d b9       	out	0x0d, r24	; 13
     1e6:	b2 9b       	sbis	0x16, 2	; 22
     1e8:	fe cf       	rjmp	.-4      	; 0x1e6 <_Z23USI_I2C_Master_Transferh+0xc>
     1ea:	93 e0       	ldi	r25, 0x03	; 3
     1ec:	9a 95       	dec	r25
     1ee:	f1 f7       	brne	.-4      	; 0x1ec <_Z23USI_I2C_Master_Transferh+0x12>
     1f0:	00 00       	nop
     1f2:	8d b9       	out	0x0d, r24	; 13
     1f4:	76 9b       	sbis	0x0e, 6	; 14
     1f6:	f3 cf       	rjmp	.-26     	; 0x1de <_Z23USI_I2C_Master_Transferh+0x4>
     1f8:	87 e0       	ldi	r24, 0x07	; 7
     1fa:	8a 95       	dec	r24
     1fc:	f1 f7       	brne	.-4      	; 0x1fa <_Z23USI_I2C_Master_Transferh+0x20>
     1fe:	8f b1       	in	r24, 0x0f	; 15
     200:	9f ef       	ldi	r25, 0xFF	; 255
     202:	9f b9       	out	0x0f, r25	; 15
     204:	b8 9a       	sbi	0x17, 0	; 23
     206:	08 95       	ret

00000208 <_Z8i2c_stopv>:
     208:	c0 98       	cbi	0x18, 0	; 24
     20a:	c2 9a       	sbi	0x18, 2	; 24
     20c:	b2 9b       	sbis	0x16, 2	; 22
     20e:	fe cf       	rjmp	.-4      	; 0x20c <_Z8i2c_stopv+0x4>
     210:	83 e0       	ldi	r24, 0x03	; 3
     212:	8a 95       	dec	r24
     214:	f1 f7       	brne	.-4      	; 0x212 <_Z8i2c_stopv+0xa>
     216:	00 00       	nop
     218:	c0 9a       	sbi	0x18, 0	; 24
     21a:	87 e0       	ldi	r24, 0x07	; 7
     21c:	8a 95       	dec	r24
     21e:	f1 f7       	brne	.-4      	; 0x21c <_Z8i2c_stopv+0x14>
     220:	75 99       	sbic	0x0e, 5	; 14
     222:	05 c0       	rjmp	.+10     	; 0x22e <_Z8i2c_stopv+0x26>
     224:	84 e0       	ldi	r24, 0x04	; 4
     226:	80 93 0a 02 	sts	0x020A, r24	; 0x80020a <USI_I2C_state>
     22a:	81 e0       	ldi	r24, 0x01	; 1
     22c:	08 95       	ret
     22e:	80 e0       	ldi	r24, 0x00	; 0
     230:	08 95       	ret

00000232 <_Z9i2c_writeh>:
     232:	b8 9a       	sbi	0x17, 0	; 23
     234:	c2 98       	cbi	0x18, 2	; 24
     236:	8f b9       	out	0x0f, r24	; 15
     238:	80 ef       	ldi	r24, 0xF0	; 240
     23a:	cf df       	rcall	.-98     	; 0x1da <_Z23USI_I2C_Master_Transferh>
     23c:	b8 98       	cbi	0x17, 0	; 23
     23e:	8e ef       	ldi	r24, 0xFE	; 254
     240:	cc df       	rcall	.-104    	; 0x1da <_Z23USI_I2C_Master_Transferh>
     242:	88 23       	and	r24, r24
     244:	19 f0       	breq	.+6      	; 0x24c <_Z9i2c_writeh+0x1a>
     246:	92 e0       	ldi	r25, 0x02	; 2
     248:	90 93 0a 02 	sts	0x020A, r25	; 0x80020a <USI_I2C_state>
     24c:	08 95       	ret

0000024e <_Z9i2c_starth>:
     24e:	c2 9a       	sbi	0x18, 2	; 24
     250:	c2 9b       	sbis	0x18, 2	; 24
     252:	fe cf       	rjmp	.-4      	; 0x250 <_Z9i2c_starth+0x2>
     254:	97 e0       	ldi	r25, 0x07	; 7
     256:	9a 95       	dec	r25
     258:	f1 f7       	brne	.-4      	; 0x256 <_Z9i2c_starth+0x8>
     25a:	c0 98       	cbi	0x18, 0	; 24
     25c:	93 e0       	ldi	r25, 0x03	; 3
     25e:	9a 95       	dec	r25
     260:	f1 f7       	brne	.-4      	; 0x25e <_Z9i2c_starth+0x10>
     262:	00 00       	nop
     264:	c2 98       	cbi	0x18, 2	; 24
     266:	93 e0       	ldi	r25, 0x03	; 3
     268:	9a 95       	dec	r25
     26a:	f1 f7       	brne	.-4      	; 0x268 <__stack+0x9>
     26c:	00 00       	nop
     26e:	c0 9a       	sbi	0x18, 0	; 24
     270:	77 99       	sbic	0x0e, 7	; 14
     272:	06 c0       	rjmp	.+12     	; 0x280 <__stack+0x21>
     274:	83 e0       	ldi	r24, 0x03	; 3
     276:	80 93 0a 02 	sts	0x020A, r24	; 0x80020a <USI_I2C_state>
     27a:	81 e0       	ldi	r24, 0x01	; 1
     27c:	90 e0       	ldi	r25, 0x00	; 0
     27e:	08 95       	ret
     280:	d8 df       	rcall	.-80     	; 0x232 <_Z9i2c_writeh>
     282:	81 11       	cpse	r24, r1
     284:	06 c0       	rjmp	.+12     	; 0x292 <__stack+0x33>
     286:	81 e0       	ldi	r24, 0x01	; 1
     288:	80 93 0a 02 	sts	0x020A, r24	; 0x80020a <USI_I2C_state>
     28c:	81 e0       	ldi	r24, 0x01	; 1
     28e:	90 e0       	ldi	r25, 0x00	; 0
     290:	08 95       	ret
     292:	80 e0       	ldi	r24, 0x00	; 0
     294:	90 e0       	ldi	r25, 0x00	; 0
     296:	08 95       	ret

00000298 <_Z13IMU_writeBytehh>:
     298:	cf 93       	push	r28
     29a:	df 93       	push	r29
     29c:	d8 2f       	mov	r29, r24
     29e:	c6 2f       	mov	r28, r22
     2a0:	86 ed       	ldi	r24, 0xD6	; 214
     2a2:	d5 df       	rcall	.-86     	; 0x24e <_Z9i2c_starth>
     2a4:	8d 2f       	mov	r24, r29
     2a6:	c5 df       	rcall	.-118    	; 0x232 <_Z9i2c_writeh>
     2a8:	8c 2f       	mov	r24, r28
     2aa:	c3 df       	rcall	.-122    	; 0x232 <_Z9i2c_writeh>
     2ac:	ad df       	rcall	.-166    	; 0x208 <_Z8i2c_stopv>
     2ae:	df 91       	pop	r29
     2b0:	cf 91       	pop	r28
     2b2:	08 95       	ret

000002b4 <_Z8IMU_initv>:
     2b4:	6e e4       	ldi	r22, 0x4E	; 78
     2b6:	80 e1       	ldi	r24, 0x10	; 16
     2b8:	ef df       	rcall	.-34     	; 0x298 <_Z13IMU_writeBytehh>
     2ba:	8a e1       	ldi	r24, 0x1A	; 26
     2bc:	8a 95       	dec	r24
     2be:	f1 f7       	brne	.-4      	; 0x2bc <_Z8IMU_initv+0x8>
     2c0:	00 c0       	rjmp	.+0      	; 0x2c2 <_Z8IMU_initv+0xe>
     2c2:	6e e4       	ldi	r22, 0x4E	; 78
     2c4:	81 e1       	ldi	r24, 0x11	; 17
     2c6:	e8 df       	rcall	.-48     	; 0x298 <_Z13IMU_writeBytehh>
     2c8:	08 95       	ret

000002ca <_Z15oledSendCommandh>:
     2ca:	cf 93       	push	r28
     2cc:	c8 2f       	mov	r28, r24
     2ce:	88 e7       	ldi	r24, 0x78	; 120
     2d0:	be df       	rcall	.-132    	; 0x24e <_Z9i2c_starth>
     2d2:	80 e0       	ldi	r24, 0x00	; 0
     2d4:	ae df       	rcall	.-164    	; 0x232 <_Z9i2c_writeh>
     2d6:	8c 2f       	mov	r24, r28
     2d8:	ac df       	rcall	.-168    	; 0x232 <_Z9i2c_writeh>
     2da:	96 df       	rcall	.-212    	; 0x208 <_Z8i2c_stopv>
     2dc:	cf 91       	pop	r28
     2de:	08 95       	ret

000002e0 <_Z21OLED_DisplayPixel_SEThh>:
     2e0:	cf 93       	push	r28
     2e2:	df 93       	push	r29
     2e4:	d8 2f       	mov	r29, r24
     2e6:	c6 2f       	mov	r28, r22
     2e8:	81 e2       	ldi	r24, 0x21	; 33
     2ea:	ef df       	rcall	.-34     	; 0x2ca <_Z15oledSendCommandh>
     2ec:	8d 2f       	mov	r24, r29
     2ee:	ed df       	rcall	.-38     	; 0x2ca <_Z15oledSendCommandh>
     2f0:	8f e7       	ldi	r24, 0x7F	; 127
     2f2:	eb df       	rcall	.-42     	; 0x2ca <_Z15oledSendCommandh>
     2f4:	82 e2       	ldi	r24, 0x22	; 34
     2f6:	e9 df       	rcall	.-46     	; 0x2ca <_Z15oledSendCommandh>
     2f8:	8c 2f       	mov	r24, r28
     2fa:	86 95       	lsr	r24
     2fc:	86 95       	lsr	r24
     2fe:	86 95       	lsr	r24
     300:	e4 df       	rcall	.-56     	; 0x2ca <_Z15oledSendCommandh>
     302:	87 e0       	ldi	r24, 0x07	; 7
     304:	e2 df       	rcall	.-60     	; 0x2ca <_Z15oledSendCommandh>
     306:	88 e7       	ldi	r24, 0x78	; 120
     308:	a2 df       	rcall	.-188    	; 0x24e <_Z9i2c_starth>
     30a:	80 e4       	ldi	r24, 0x40	; 64
     30c:	92 df       	rcall	.-220    	; 0x232 <_Z9i2c_writeh>
     30e:	c7 70       	andi	r28, 0x07	; 7
     310:	81 e0       	ldi	r24, 0x01	; 1
     312:	01 c0       	rjmp	.+2      	; 0x316 <_Z21OLED_DisplayPixel_SEThh+0x36>
     314:	88 0f       	add	r24, r24
     316:	ca 95       	dec	r28
     318:	ea f7       	brpl	.-6      	; 0x314 <_Z21OLED_DisplayPixel_SEThh+0x34>
     31a:	8b df       	rcall	.-234    	; 0x232 <_Z9i2c_writeh>
     31c:	75 df       	rcall	.-278    	; 0x208 <_Z8i2c_stopv>
     31e:	df 91       	pop	r29
     320:	cf 91       	pop	r28
     322:	08 95       	ret

00000324 <_Z10OLED_Clearv>:
     324:	cf 93       	push	r28
     326:	df 93       	push	r29
     328:	81 e2       	ldi	r24, 0x21	; 33
     32a:	cf df       	rcall	.-98     	; 0x2ca <_Z15oledSendCommandh>
     32c:	80 e0       	ldi	r24, 0x00	; 0
     32e:	cd df       	rcall	.-102    	; 0x2ca <_Z15oledSendCommandh>
     330:	8f e7       	ldi	r24, 0x7F	; 127
     332:	cb df       	rcall	.-106    	; 0x2ca <_Z15oledSendCommandh>
     334:	82 e2       	ldi	r24, 0x22	; 34
     336:	c9 df       	rcall	.-110    	; 0x2ca <_Z15oledSendCommandh>
     338:	80 e0       	ldi	r24, 0x00	; 0
     33a:	c7 df       	rcall	.-114    	; 0x2ca <_Z15oledSendCommandh>
     33c:	87 e0       	ldi	r24, 0x07	; 7
     33e:	c5 df       	rcall	.-118    	; 0x2ca <_Z15oledSendCommandh>
     340:	88 e7       	ldi	r24, 0x78	; 120
     342:	85 df       	rcall	.-246    	; 0x24e <_Z9i2c_starth>
     344:	80 e4       	ldi	r24, 0x40	; 64
     346:	75 df       	rcall	.-278    	; 0x232 <_Z9i2c_writeh>
     348:	c0 e0       	ldi	r28, 0x00	; 0
     34a:	d4 e0       	ldi	r29, 0x04	; 4
     34c:	80 e0       	ldi	r24, 0x00	; 0
     34e:	71 df       	rcall	.-286    	; 0x232 <_Z9i2c_writeh>
     350:	21 97       	sbiw	r28, 0x01	; 1
     352:	e1 f7       	brne	.-8      	; 0x34c <_Z10OLED_Clearv+0x28>
     354:	81 e2       	ldi	r24, 0x21	; 33
     356:	b9 df       	rcall	.-142    	; 0x2ca <_Z15oledSendCommandh>
     358:	80 e0       	ldi	r24, 0x00	; 0
     35a:	b7 df       	rcall	.-146    	; 0x2ca <_Z15oledSendCommandh>
     35c:	8f e7       	ldi	r24, 0x7F	; 127
     35e:	b5 df       	rcall	.-150    	; 0x2ca <_Z15oledSendCommandh>
     360:	82 e2       	ldi	r24, 0x22	; 34
     362:	b3 df       	rcall	.-154    	; 0x2ca <_Z15oledSendCommandh>
     364:	80 e0       	ldi	r24, 0x00	; 0
     366:	b1 df       	rcall	.-158    	; 0x2ca <_Z15oledSendCommandh>
     368:	87 e0       	ldi	r24, 0x07	; 7
     36a:	af df       	rcall	.-162    	; 0x2ca <_Z15oledSendCommandh>
     36c:	88 e7       	ldi	r24, 0x78	; 120
     36e:	6f df       	rcall	.-290    	; 0x24e <_Z9i2c_starth>
     370:	80 e4       	ldi	r24, 0x40	; 64
     372:	5f df       	rcall	.-322    	; 0x232 <_Z9i2c_writeh>
     374:	df 91       	pop	r29
     376:	cf 91       	pop	r28
     378:	08 95       	ret

0000037a <_Z9OLED_Initv>:
     37a:	24 df       	rcall	.-440    	; 0x1c4 <_Z8i2c_initv>
     37c:	8e ea       	ldi	r24, 0xAE	; 174
     37e:	a5 df       	rcall	.-182    	; 0x2ca <_Z15oledSendCommandh>
     380:	85 ed       	ldi	r24, 0xD5	; 213
     382:	a3 df       	rcall	.-186    	; 0x2ca <_Z15oledSendCommandh>
     384:	80 e8       	ldi	r24, 0x80	; 128
     386:	a1 df       	rcall	.-190    	; 0x2ca <_Z15oledSendCommandh>
     388:	88 ea       	ldi	r24, 0xA8	; 168
     38a:	9f df       	rcall	.-194    	; 0x2ca <_Z15oledSendCommandh>
     38c:	8f e3       	ldi	r24, 0x3F	; 63
     38e:	9d df       	rcall	.-198    	; 0x2ca <_Z15oledSendCommandh>
     390:	83 ed       	ldi	r24, 0xD3	; 211
     392:	9b df       	rcall	.-202    	; 0x2ca <_Z15oledSendCommandh>
     394:	80 e0       	ldi	r24, 0x00	; 0
     396:	99 df       	rcall	.-206    	; 0x2ca <_Z15oledSendCommandh>
     398:	80 e4       	ldi	r24, 0x40	; 64
     39a:	97 df       	rcall	.-210    	; 0x2ca <_Z15oledSendCommandh>
     39c:	8d e8       	ldi	r24, 0x8D	; 141
     39e:	95 df       	rcall	.-214    	; 0x2ca <_Z15oledSendCommandh>
     3a0:	84 e1       	ldi	r24, 0x14	; 20
     3a2:	93 df       	rcall	.-218    	; 0x2ca <_Z15oledSendCommandh>
     3a4:	80 e2       	ldi	r24, 0x20	; 32
     3a6:	91 df       	rcall	.-222    	; 0x2ca <_Z15oledSendCommandh>
     3a8:	80 e0       	ldi	r24, 0x00	; 0
     3aa:	8f df       	rcall	.-226    	; 0x2ca <_Z15oledSendCommandh>
     3ac:	81 ea       	ldi	r24, 0xA1	; 161
     3ae:	8d df       	rcall	.-230    	; 0x2ca <_Z15oledSendCommandh>
     3b0:	88 ec       	ldi	r24, 0xC8	; 200
     3b2:	8b df       	rcall	.-234    	; 0x2ca <_Z15oledSendCommandh>
     3b4:	8a ed       	ldi	r24, 0xDA	; 218
     3b6:	89 df       	rcall	.-238    	; 0x2ca <_Z15oledSendCommandh>
     3b8:	82 e1       	ldi	r24, 0x12	; 18
     3ba:	87 df       	rcall	.-242    	; 0x2ca <_Z15oledSendCommandh>
     3bc:	81 e8       	ldi	r24, 0x81	; 129
     3be:	85 df       	rcall	.-246    	; 0x2ca <_Z15oledSendCommandh>
     3c0:	8f ec       	ldi	r24, 0xCF	; 207
     3c2:	83 df       	rcall	.-250    	; 0x2ca <_Z15oledSendCommandh>
     3c4:	89 ed       	ldi	r24, 0xD9	; 217
     3c6:	81 df       	rcall	.-254    	; 0x2ca <_Z15oledSendCommandh>
     3c8:	81 ef       	ldi	r24, 0xF1	; 241
     3ca:	7f df       	rcall	.-258    	; 0x2ca <_Z15oledSendCommandh>
     3cc:	8b ed       	ldi	r24, 0xDB	; 219
     3ce:	7d df       	rcall	.-262    	; 0x2ca <_Z15oledSendCommandh>
     3d0:	80 e4       	ldi	r24, 0x40	; 64
     3d2:	7b df       	rcall	.-266    	; 0x2ca <_Z15oledSendCommandh>
     3d4:	84 ea       	ldi	r24, 0xA4	; 164
     3d6:	79 df       	rcall	.-270    	; 0x2ca <_Z15oledSendCommandh>
     3d8:	86 ea       	ldi	r24, 0xA6	; 166
     3da:	77 df       	rcall	.-274    	; 0x2ca <_Z15oledSendCommandh>
     3dc:	8f ea       	ldi	r24, 0xAF	; 175
     3de:	75 df       	rcall	.-278    	; 0x2ca <_Z15oledSendCommandh>
     3e0:	a1 df       	rcall	.-190    	; 0x324 <_Z10OLED_Clearv>
     3e2:	08 95       	ret

000003e4 <_Z14OLED_SetCursorhh>:
     3e4:	cf 93       	push	r28
     3e6:	df 93       	push	r29
     3e8:	88 30       	cpi	r24, 0x08	; 8
     3ea:	c0 f4       	brcc	.+48     	; 0x41c <__LOCK_REGION_LENGTH__+0x1c>
     3ec:	66 23       	and	r22, r22
     3ee:	b4 f0       	brlt	.+44     	; 0x41c <__LOCK_REGION_LENGTH__+0x1c>
     3f0:	d6 2f       	mov	r29, r22
     3f2:	c8 2f       	mov	r28, r24
     3f4:	80 93 0c 02 	sts	0x020C, r24	; 0x80020c <OledLineNum>
     3f8:	60 93 0b 02 	sts	0x020B, r22	; 0x80020b <OledCursorPos>
     3fc:	81 e2       	ldi	r24, 0x21	; 33
     3fe:	65 df       	rcall	.-310    	; 0x2ca <_Z15oledSendCommandh>
     400:	8d 2f       	mov	r24, r29
     402:	63 df       	rcall	.-314    	; 0x2ca <_Z15oledSendCommandh>
     404:	8f e7       	ldi	r24, 0x7F	; 127
     406:	61 df       	rcall	.-318    	; 0x2ca <_Z15oledSendCommandh>
     408:	82 e2       	ldi	r24, 0x22	; 34
     40a:	5f df       	rcall	.-322    	; 0x2ca <_Z15oledSendCommandh>
     40c:	8c 2f       	mov	r24, r28
     40e:	5d df       	rcall	.-326    	; 0x2ca <_Z15oledSendCommandh>
     410:	87 e0       	ldi	r24, 0x07	; 7
     412:	5b df       	rcall	.-330    	; 0x2ca <_Z15oledSendCommandh>
     414:	88 e7       	ldi	r24, 0x78	; 120
     416:	1b df       	rcall	.-458    	; 0x24e <_Z9i2c_starth>
     418:	80 e4       	ldi	r24, 0x40	; 64
     41a:	0b df       	rcall	.-490    	; 0x232 <_Z9i2c_writeh>
     41c:	df 91       	pop	r29
     41e:	cf 91       	pop	r28
     420:	08 95       	ret

00000422 <_Z17OLED_GoToNextLinev>:
     422:	80 91 0c 02 	lds	r24, 0x020C	; 0x80020c <OledLineNum>
     426:	8f 5f       	subi	r24, 0xFF	; 255
     428:	87 70       	andi	r24, 0x07	; 7
     42a:	80 93 0c 02 	sts	0x020C, r24	; 0x80020c <OledLineNum>
     42e:	60 e0       	ldi	r22, 0x00	; 0
     430:	d9 df       	rcall	.-78     	; 0x3e4 <_Z14OLED_SetCursorhh>
     432:	08 95       	ret

00000434 <_Z16OLED_DisplayCharh>:
     434:	1f 93       	push	r17
     436:	cf 93       	push	r28
     438:	df 93       	push	r29
     43a:	c8 2f       	mov	r28, r24
     43c:	80 91 0b 02 	lds	r24, 0x020B	; 0x80020b <OledCursorPos>
     440:	90 e0       	ldi	r25, 0x00	; 0
     442:	05 96       	adiw	r24, 0x05	; 5
     444:	80 38       	cpi	r24, 0x80	; 128
     446:	91 05       	cpc	r25, r1
     448:	1c f4       	brge	.+6      	; 0x450 <_Z16OLED_DisplayCharh+0x1c>
     44a:	ca 30       	cpi	r28, 0x0A	; 10
     44c:	21 f4       	brne	.+8      	; 0x456 <_Z16OLED_DisplayCharh+0x22>
     44e:	21 c0       	rjmp	.+66     	; 0x492 <_Z16OLED_DisplayCharh+0x5e>
     450:	e8 df       	rcall	.-48     	; 0x422 <_Z17OLED_GoToNextLinev>
     452:	ca 30       	cpi	r28, 0x0A	; 10
     454:	f9 f0       	breq	.+62     	; 0x494 <_Z16OLED_DisplayCharh+0x60>
     456:	c0 52       	subi	r28, 0x20	; 32
     458:	d0 e0       	ldi	r29, 0x00	; 0
     45a:	ce 01       	movw	r24, r28
     45c:	88 0f       	add	r24, r24
     45e:	99 1f       	adc	r25, r25
     460:	88 0f       	add	r24, r24
     462:	99 1f       	adc	r25, r25
     464:	c8 0f       	add	r28, r24
     466:	d9 1f       	adc	r29, r25
     468:	c0 56       	subi	r28, 0x60	; 96
     46a:	df 4f       	sbci	r29, 0xFF	; 255
     46c:	10 e0       	ldi	r17, 0x00	; 0
     46e:	89 91       	ld	r24, Y+
     470:	e0 de       	rcall	.-576    	; 0x232 <_Z9i2c_writeh>
     472:	80 91 0b 02 	lds	r24, 0x020B	; 0x80020b <OledCursorPos>
     476:	8f 5f       	subi	r24, 0xFF	; 255
     478:	80 93 0b 02 	sts	0x020B, r24	; 0x80020b <OledCursorPos>
     47c:	1f 5f       	subi	r17, 0xFF	; 255
     47e:	15 30       	cpi	r17, 0x05	; 5
     480:	b1 f7       	brne	.-20     	; 0x46e <_Z16OLED_DisplayCharh+0x3a>
     482:	80 e0       	ldi	r24, 0x00	; 0
     484:	d6 de       	rcall	.-596    	; 0x232 <_Z9i2c_writeh>
     486:	80 91 0b 02 	lds	r24, 0x020B	; 0x80020b <OledCursorPos>
     48a:	8f 5f       	subi	r24, 0xFF	; 255
     48c:	80 93 0b 02 	sts	0x020B, r24	; 0x80020b <OledCursorPos>
     490:	01 c0       	rjmp	.+2      	; 0x494 <_Z16OLED_DisplayCharh+0x60>
     492:	c7 df       	rcall	.-114    	; 0x422 <_Z17OLED_GoToNextLinev>
     494:	df 91       	pop	r29
     496:	cf 91       	pop	r28
     498:	1f 91       	pop	r17
     49a:	08 95       	ret

0000049c <_Z18OLED_DisplayStringPc>:
     49c:	cf 93       	push	r28
     49e:	df 93       	push	r29
     4a0:	ec 01       	movw	r28, r24
     4a2:	88 81       	ld	r24, Y
     4a4:	88 23       	and	r24, r24
     4a6:	29 f0       	breq	.+10     	; 0x4b2 <_Z18OLED_DisplayStringPc+0x16>
     4a8:	21 96       	adiw	r28, 0x01	; 1
     4aa:	c4 df       	rcall	.-120    	; 0x434 <_Z16OLED_DisplayCharh>
     4ac:	89 91       	ld	r24, Y+
     4ae:	81 11       	cpse	r24, r1
     4b0:	fc cf       	rjmp	.-8      	; 0x4aa <_Z18OLED_DisplayStringPc+0xe>
     4b2:	df 91       	pop	r29
     4b4:	cf 91       	pop	r28
     4b6:	08 95       	ret

000004b8 <_Z18OLED_DisplayNumberhmh>:
     4b8:	4f 92       	push	r4
     4ba:	5f 92       	push	r5
     4bc:	6f 92       	push	r6
     4be:	7f 92       	push	r7
     4c0:	8f 92       	push	r8
     4c2:	9f 92       	push	r9
     4c4:	af 92       	push	r10
     4c6:	bf 92       	push	r11
     4c8:	cf 92       	push	r12
     4ca:	df 92       	push	r13
     4cc:	ef 92       	push	r14
     4ce:	ff 92       	push	r15
     4d0:	0f 93       	push	r16
     4d2:	1f 93       	push	r17
     4d4:	cf 93       	push	r28
     4d6:	df 93       	push	r29
     4d8:	cd b7       	in	r28, 0x3d	; 61
     4da:	de b7       	in	r29, 0x3e	; 62
     4dc:	2a 97       	sbiw	r28, 0x0a	; 10
     4de:	0f b6       	in	r0, 0x3f	; 63
     4e0:	f8 94       	cli
     4e2:	de bf       	out	0x3e, r29	; 62
     4e4:	0f be       	out	0x3f, r0	; 63
     4e6:	cd bf       	out	0x3d, r28	; 61
     4e8:	88 2e       	mov	r8, r24
     4ea:	6a 01       	movw	r12, r20
     4ec:	7b 01       	movw	r14, r22
     4ee:	12 2f       	mov	r17, r18
     4f0:	82 e0       	ldi	r24, 0x02	; 2
     4f2:	88 12       	cpse	r8, r24
     4f4:	23 c0       	rjmp	.+70     	; 0x53c <_Z18OLED_DisplayNumberhmh+0x84>
     4f6:	22 23       	and	r18, r18
     4f8:	09 f4       	brne	.+2      	; 0x4fc <_Z18OLED_DisplayNumberhmh+0x44>
     4fa:	6d c0       	rjmp	.+218    	; 0x5d6 <_Z18OLED_DisplayNumberhmh+0x11e>
     4fc:	aa 24       	eor	r10, r10
     4fe:	a3 94       	inc	r10
     500:	b1 2c       	mov	r11, r1
     502:	01 e0       	ldi	r16, 0x01	; 1
     504:	91 2c       	mov	r9, r1
     506:	8f ef       	ldi	r24, 0xFF	; 255
     508:	81 0f       	add	r24, r17
     50a:	a5 01       	movw	r20, r10
     50c:	02 c0       	rjmp	.+4      	; 0x512 <_Z18OLED_DisplayNumberhmh+0x5a>
     50e:	44 0f       	add	r20, r20
     510:	55 1f       	adc	r21, r21
     512:	8a 95       	dec	r24
     514:	e2 f7       	brpl	.-8      	; 0x50e <_Z18OLED_DisplayNumberhmh+0x56>
     516:	05 2e       	mov	r0, r21
     518:	00 0c       	add	r0, r0
     51a:	66 0b       	sbc	r22, r22
     51c:	77 0b       	sbc	r23, r23
     51e:	4c 21       	and	r20, r12
     520:	5d 21       	and	r21, r13
     522:	6e 21       	and	r22, r14
     524:	7f 21       	and	r23, r15
     526:	80 2f       	mov	r24, r16
     528:	45 2b       	or	r20, r21
     52a:	46 2b       	or	r20, r22
     52c:	47 2b       	or	r20, r23
     52e:	09 f4       	brne	.+2      	; 0x532 <_Z18OLED_DisplayNumberhmh+0x7a>
     530:	89 2d       	mov	r24, r9
     532:	80 5d       	subi	r24, 0xD0	; 208
     534:	7f df       	rcall	.-258    	; 0x434 <_Z16OLED_DisplayCharh>
     536:	11 50       	subi	r17, 0x01	; 1
     538:	31 f7       	brne	.-52     	; 0x506 <_Z18OLED_DisplayNumberhmh+0x4e>
     53a:	4d c0       	rjmp	.+154    	; 0x5d6 <_Z18OLED_DisplayNumberhmh+0x11e>
     53c:	45 2b       	or	r20, r21
     53e:	46 2b       	or	r20, r22
     540:	47 2b       	or	r20, r23
     542:	19 f0       	breq	.+6      	; 0x54a <_Z18OLED_DisplayNumberhmh+0x92>
     544:	21 11       	cpse	r18, r1
     546:	0f c0       	rjmp	.+30     	; 0x566 <_Z18OLED_DisplayNumberhmh+0xae>
     548:	46 c0       	rjmp	.+140    	; 0x5d6 <_Z18OLED_DisplayNumberhmh+0x11e>
     54a:	22 23       	and	r18, r18
     54c:	09 f4       	brne	.+2      	; 0x550 <_Z18OLED_DisplayNumberhmh+0x98>
     54e:	43 c0       	rjmp	.+134    	; 0x5d6 <_Z18OLED_DisplayNumberhmh+0x11e>
     550:	00 e0       	ldi	r16, 0x00	; 0
     552:	03 c0       	rjmp	.+6      	; 0x55a <_Z18OLED_DisplayNumberhmh+0xa2>
     554:	0a 30       	cpi	r16, 0x0A	; 10
     556:	09 f4       	brne	.+2      	; 0x55a <_Z18OLED_DisplayNumberhmh+0xa2>
     558:	3e c0       	rjmp	.+124    	; 0x5d6 <_Z18OLED_DisplayNumberhmh+0x11e>
     55a:	80 e3       	ldi	r24, 0x30	; 48
     55c:	6b df       	rcall	.-298    	; 0x434 <_Z16OLED_DisplayCharh>
     55e:	0f 5f       	subi	r16, 0xFF	; 255
     560:	10 13       	cpse	r17, r16
     562:	f8 cf       	rjmp	.-16     	; 0x554 <_Z18OLED_DisplayNumberhmh+0x9c>
     564:	38 c0       	rjmp	.+112    	; 0x5d6 <_Z18OLED_DisplayNumberhmh+0x11e>
     566:	fe 01       	movw	r30, r28
     568:	31 96       	adiw	r30, 0x01	; 1
     56a:	5f 01       	movw	r10, r30
     56c:	00 e0       	ldi	r16, 0x00	; 0
     56e:	48 2c       	mov	r4, r8
     570:	51 2c       	mov	r5, r1
     572:	61 2c       	mov	r6, r1
     574:	71 2c       	mov	r7, r1
     576:	c1 14       	cp	r12, r1
     578:	d1 04       	cpc	r13, r1
     57a:	e1 04       	cpc	r14, r1
     57c:	f1 04       	cpc	r15, r1
     57e:	89 f0       	breq	.+34     	; 0x5a2 <_Z18OLED_DisplayNumberhmh+0xea>
     580:	9c 2c       	mov	r9, r12
     582:	c7 01       	movw	r24, r14
     584:	b6 01       	movw	r22, r12
     586:	a3 01       	movw	r20, r6
     588:	92 01       	movw	r18, r4
     58a:	3d db       	rcall	.-2438   	; 0xfffffc06 <__eeprom_end+0xff7efc06>
     58c:	c2 2e       	mov	r12, r18
     58e:	d3 2e       	mov	r13, r19
     590:	e4 2e       	mov	r14, r20
     592:	f5 2e       	mov	r15, r21
     594:	88 2d       	mov	r24, r8
     596:	62 2f       	mov	r22, r18
     598:	2d db       	rcall	.-2470   	; 0xfffffbf4 <__eeprom_end+0xff7efbf4>
     59a:	98 1a       	sub	r9, r24
     59c:	f5 01       	movw	r30, r10
     59e:	90 82       	st	Z, r9
     5a0:	08 c0       	rjmp	.+16     	; 0x5b2 <_Z18OLED_DisplayNumberhmh+0xfa>
     5a2:	1b 30       	cpi	r17, 0x0B	; 11
     5a4:	20 f0       	brcs	.+8      	; 0x5ae <_Z18OLED_DisplayNumberhmh+0xf6>
     5a6:	00 23       	and	r16, r16
     5a8:	b1 f0       	breq	.+44     	; 0x5d6 <_Z18OLED_DisplayNumberhmh+0x11e>
     5aa:	10 2f       	mov	r17, r16
     5ac:	08 c0       	rjmp	.+16     	; 0x5be <_Z18OLED_DisplayNumberhmh+0x106>
     5ae:	f5 01       	movw	r30, r10
     5b0:	10 82       	st	Z, r1
     5b2:	0f 5f       	subi	r16, 0xFF	; 255
     5b4:	ff ef       	ldi	r31, 0xFF	; 255
     5b6:	af 1a       	sub	r10, r31
     5b8:	bf 0a       	sbc	r11, r31
     5ba:	10 13       	cpse	r17, r16
     5bc:	dc cf       	rjmp	.-72     	; 0x576 <_Z18OLED_DisplayNumberhmh+0xbe>
     5be:	fe 01       	movw	r30, r28
     5c0:	e1 0f       	add	r30, r17
     5c2:	f1 1d       	adc	r31, r1
     5c4:	80 81       	ld	r24, Z
     5c6:	8a 30       	cpi	r24, 0x0A	; 10
     5c8:	10 f0       	brcs	.+4      	; 0x5ce <_Z18OLED_DisplayNumberhmh+0x116>
     5ca:	89 5c       	subi	r24, 0xC9	; 201
     5cc:	01 c0       	rjmp	.+2      	; 0x5d0 <_Z18OLED_DisplayNumberhmh+0x118>
     5ce:	80 5d       	subi	r24, 0xD0	; 208
     5d0:	31 df       	rcall	.-414    	; 0x434 <_Z16OLED_DisplayCharh>
     5d2:	11 50       	subi	r17, 0x01	; 1
     5d4:	a1 f7       	brne	.-24     	; 0x5be <_Z18OLED_DisplayNumberhmh+0x106>
     5d6:	2a 96       	adiw	r28, 0x0a	; 10
     5d8:	0f b6       	in	r0, 0x3f	; 63
     5da:	f8 94       	cli
     5dc:	de bf       	out	0x3e, r29	; 62
     5de:	0f be       	out	0x3f, r0	; 63
     5e0:	cd bf       	out	0x3d, r28	; 61
     5e2:	df 91       	pop	r29
     5e4:	cf 91       	pop	r28
     5e6:	1f 91       	pop	r17
     5e8:	0f 91       	pop	r16
     5ea:	ff 90       	pop	r15
     5ec:	ef 90       	pop	r14
     5ee:	df 90       	pop	r13
     5f0:	cf 90       	pop	r12
     5f2:	bf 90       	pop	r11
     5f4:	af 90       	pop	r10
     5f6:	9f 90       	pop	r9
     5f8:	8f 90       	pop	r8
     5fa:	7f 90       	pop	r7
     5fc:	6f 90       	pop	r6
     5fe:	5f 90       	pop	r5
     600:	4f 90       	pop	r4
     602:	08 95       	ret

00000604 <_Z23OLED_DisplayFloatNumberd>:
     604:	8f 92       	push	r8
     606:	9f 92       	push	r9
     608:	af 92       	push	r10
     60a:	bf 92       	push	r11
     60c:	cf 92       	push	r12
     60e:	df 92       	push	r13
     610:	ef 92       	push	r14
     612:	ff 92       	push	r15
     614:	6b 01       	movw	r12, r22
     616:	7c 01       	movw	r14, r24
     618:	45 d9       	rcall	.-3446   	; 0xfffff8a4 <__eeprom_end+0xff7ef8a4>
     61a:	4b 01       	movw	r8, r22
     61c:	5c 01       	movw	r10, r24
     61e:	2f ef       	ldi	r18, 0xFF	; 255
     620:	ab 01       	movw	r20, r22
     622:	bc 01       	movw	r22, r24
     624:	8a e0       	ldi	r24, 0x0A	; 10
     626:	48 df       	rcall	.-368    	; 0x4b8 <_Z18OLED_DisplayNumberhmh>
     628:	8e e2       	ldi	r24, 0x2E	; 46
     62a:	04 df       	rcall	.-504    	; 0x434 <_Z16OLED_DisplayCharh>
     62c:	c5 01       	movw	r24, r10
     62e:	b4 01       	movw	r22, r8
     630:	65 d9       	rcall	.-3382   	; 0xfffff8fc <__eeprom_end+0xff7ef8fc>
     632:	9b 01       	movw	r18, r22
     634:	ac 01       	movw	r20, r24
     636:	c7 01       	movw	r24, r14
     638:	b6 01       	movw	r22, r12
     63a:	cc d8       	rcall	.-3688   	; 0xfffff7d4 <__eeprom_end+0xff7ef7d4>
     63c:	20 e0       	ldi	r18, 0x00	; 0
     63e:	34 e2       	ldi	r19, 0x24	; 36
     640:	44 e7       	ldi	r20, 0x74	; 116
     642:	59 e4       	ldi	r21, 0x49	; 73
     644:	22 da       	rcall	.-3004   	; 0xfffffa8a <__eeprom_end+0xff7efa8a>
     646:	2e d9       	rcall	.-3492   	; 0xfffff8a4 <__eeprom_end+0xff7ef8a4>
     648:	ab 01       	movw	r20, r22
     64a:	bc 01       	movw	r22, r24
     64c:	2f ef       	ldi	r18, 0xFF	; 255
     64e:	8a e0       	ldi	r24, 0x0A	; 10
     650:	33 df       	rcall	.-410    	; 0x4b8 <_Z18OLED_DisplayNumberhmh>
     652:	ff 90       	pop	r15
     654:	ef 90       	pop	r14
     656:	df 90       	pop	r13
     658:	cf 90       	pop	r12
     65a:	bf 90       	pop	r11
     65c:	af 90       	pop	r10
     65e:	9f 90       	pop	r9
     660:	8f 90       	pop	r8
     662:	08 95       	ret

00000664 <_Z11OLED_PrintfPKcz>:
     664:	4f 92       	push	r4
     666:	5f 92       	push	r5
     668:	6f 92       	push	r6
     66a:	7f 92       	push	r7
     66c:	8f 92       	push	r8
     66e:	9f 92       	push	r9
     670:	af 92       	push	r10
     672:	bf 92       	push	r11
     674:	cf 92       	push	r12
     676:	df 92       	push	r13
     678:	ef 92       	push	r14
     67a:	ff 92       	push	r15
     67c:	0f 93       	push	r16
     67e:	1f 93       	push	r17
     680:	cf 93       	push	r28
     682:	df 93       	push	r29
     684:	cd b7       	in	r28, 0x3d	; 61
     686:	de b7       	in	r29, 0x3e	; 62
     688:	fe 01       	movw	r30, r28
     68a:	73 96       	adiw	r30, 0x13	; 19
     68c:	81 90       	ld	r8, Z+
     68e:	91 90       	ld	r9, Z+
     690:	8f 01       	movw	r16, r30
     692:	d4 01       	movw	r26, r8
     694:	8c 91       	ld	r24, X
     696:	88 23       	and	r24, r24
     698:	09 f4       	brne	.+2      	; 0x69c <_Z11OLED_PrintfPKcz+0x38>
     69a:	ed c0       	rjmp	.+474    	; 0x876 <_Z11OLED_PrintfPKcz+0x212>
     69c:	68 94       	set
     69e:	bb 24       	eor	r11, r11
     6a0:	b4 f8       	bld	r11, 4
     6a2:	cc 24       	eor	r12, r12
     6a4:	ca 94       	dec	r12
     6a6:	d1 2c       	mov	r13, r1
     6a8:	85 32       	cpi	r24, 0x25	; 37
     6aa:	09 f0       	breq	.+2      	; 0x6ae <_Z11OLED_PrintfPKcz+0x4a>
     6ac:	c5 c0       	rjmp	.+394    	; 0x838 <_Z11OLED_PrintfPKcz+0x1d4>
     6ae:	74 01       	movw	r14, r8
     6b0:	bf ef       	ldi	r27, 0xFF	; 255
     6b2:	eb 1a       	sub	r14, r27
     6b4:	fb 0a       	sbc	r15, r27
     6b6:	d4 01       	movw	r26, r8
     6b8:	11 96       	adiw	r26, 0x01	; 1
     6ba:	ec 91       	ld	r30, X
     6bc:	11 97       	sbiw	r26, 0x01	; 1
     6be:	80 ed       	ldi	r24, 0xD0	; 208
     6c0:	8e 0f       	add	r24, r30
     6c2:	8a 30       	cpi	r24, 0x0A	; 10
     6c4:	08 f0       	brcs	.+2      	; 0x6c8 <_Z11OLED_PrintfPKcz+0x64>
     6c6:	cd c0       	rjmp	.+410    	; 0x862 <_Z11OLED_PrintfPKcz+0x1fe>
     6c8:	12 96       	adiw	r26, 0x02	; 2
     6ca:	ad 2c       	mov	r10, r13
     6cc:	2a 2d       	mov	r18, r10
     6ce:	22 0f       	add	r18, r18
     6d0:	22 0f       	add	r18, r18
     6d2:	2a 0d       	add	r18, r10
     6d4:	22 0f       	add	r18, r18
     6d6:	20 53       	subi	r18, 0x30	; 48
     6d8:	a2 2e       	mov	r10, r18
     6da:	ae 0e       	add	r10, r30
     6dc:	7d 01       	movw	r14, r26
     6de:	ed 91       	ld	r30, X+
     6e0:	80 ed       	ldi	r24, 0xD0	; 208
     6e2:	8e 0f       	add	r24, r30
     6e4:	8a 30       	cpi	r24, 0x0A	; 10
     6e6:	90 f3       	brcs	.-28     	; 0x6cc <_Z11OLED_PrintfPKcz+0x68>
     6e8:	8e 2f       	mov	r24, r30
     6ea:	90 e0       	ldi	r25, 0x00	; 0
     6ec:	fc 01       	movw	r30, r24
     6ee:	b5 97       	sbiw	r30, 0x25	; 37
     6f0:	e4 35       	cpi	r30, 0x54	; 84
     6f2:	f1 05       	cpc	r31, r1
     6f4:	08 f0       	brcs	.+2      	; 0x6f8 <_Z11OLED_PrintfPKcz+0x94>
     6f6:	a2 c0       	rjmp	.+324    	; 0x83c <_Z11OLED_PrintfPKcz+0x1d8>
     6f8:	e1 5f       	subi	r30, 0xF1	; 241
     6fa:	ff 4f       	sbci	r31, 0xFF	; 255
     6fc:	09 94       	ijmp
     6fe:	48 01       	movw	r8, r16
     700:	b2 e0       	ldi	r27, 0x02	; 2
     702:	8b 0e       	add	r8, r27
     704:	91 1c       	adc	r9, r1
     706:	f8 01       	movw	r30, r16
     708:	80 81       	ld	r24, Z
     70a:	94 de       	rcall	.-728    	; 0x434 <_Z16OLED_DisplayCharh>
     70c:	84 01       	movw	r16, r8
     70e:	96 c0       	rjmp	.+300    	; 0x83c <_Z11OLED_PrintfPKcz+0x1d8>
     710:	ac 2c       	mov	r10, r12
     712:	f8 01       	movw	r30, r16
     714:	80 80       	ld	r8, Z
     716:	91 80       	ldd	r9, Z+1	; 0x01
     718:	0e 5f       	subi	r16, 0xFE	; 254
     71a:	1f 4f       	sbci	r17, 0xFF	; 255
     71c:	99 20       	and	r9, r9
     71e:	2c f4       	brge	.+10     	; 0x72a <_Z11OLED_PrintfPKcz+0xc6>
     720:	91 94       	neg	r9
     722:	81 94       	neg	r8
     724:	91 08       	sbc	r9, r1
     726:	8d e2       	ldi	r24, 0x2D	; 45
     728:	85 de       	rcall	.-758    	; 0x434 <_Z16OLED_DisplayCharh>
     72a:	a4 01       	movw	r20, r8
     72c:	99 0c       	add	r9, r9
     72e:	66 0b       	sbc	r22, r22
     730:	77 0b       	sbc	r23, r23
     732:	2a 2d       	mov	r18, r10
     734:	8a e0       	ldi	r24, 0x0A	; 10
     736:	c0 de       	rcall	.-640    	; 0x4b8 <_Z18OLED_DisplayNumberhmh>
     738:	81 c0       	rjmp	.+258    	; 0x83c <_Z11OLED_PrintfPKcz+0x1d8>
     73a:	ac 2c       	mov	r10, r12
     73c:	f8 01       	movw	r30, r16
     73e:	40 80       	ld	r4, Z
     740:	51 80       	ldd	r5, Z+1	; 0x01
     742:	62 80       	ldd	r6, Z+2	; 0x02
     744:	73 80       	ldd	r7, Z+3	; 0x03
     746:	0c 5f       	subi	r16, 0xFC	; 252
     748:	1f 4f       	sbci	r17, 0xFF	; 255
     74a:	77 20       	and	r7, r7
     74c:	54 f4       	brge	.+20     	; 0x762 <_Z11OLED_PrintfPKcz+0xfe>
     74e:	70 94       	com	r7
     750:	60 94       	com	r6
     752:	50 94       	com	r5
     754:	40 94       	com	r4
     756:	41 1c       	adc	r4, r1
     758:	51 1c       	adc	r5, r1
     75a:	61 1c       	adc	r6, r1
     75c:	71 1c       	adc	r7, r1
     75e:	8d e2       	ldi	r24, 0x2D	; 45
     760:	69 de       	rcall	.-814    	; 0x434 <_Z16OLED_DisplayCharh>
     762:	2a 2d       	mov	r18, r10
     764:	b3 01       	movw	r22, r6
     766:	a2 01       	movw	r20, r4
     768:	8a e0       	ldi	r24, 0x0A	; 10
     76a:	a6 de       	rcall	.-692    	; 0x4b8 <_Z18OLED_DisplayNumberhmh>
     76c:	67 c0       	rjmp	.+206    	; 0x83c <_Z11OLED_PrintfPKcz+0x1d8>
     76e:	ac 2c       	mov	r10, r12
     770:	f8 01       	movw	r30, r16
     772:	40 81       	ld	r20, Z
     774:	51 81       	ldd	r21, Z+1	; 0x01
     776:	0e 5f       	subi	r16, 0xFE	; 254
     778:	1f 4f       	sbci	r17, 0xFF	; 255
     77a:	60 e0       	ldi	r22, 0x00	; 0
     77c:	70 e0       	ldi	r23, 0x00	; 0
     77e:	2a 2d       	mov	r18, r10
     780:	8a e0       	ldi	r24, 0x0A	; 10
     782:	9a de       	rcall	.-716    	; 0x4b8 <_Z18OLED_DisplayNumberhmh>
     784:	5b c0       	rjmp	.+182    	; 0x83c <_Z11OLED_PrintfPKcz+0x1d8>
     786:	ac 2c       	mov	r10, r12
     788:	f8 01       	movw	r30, r16
     78a:	40 81       	ld	r20, Z
     78c:	51 81       	ldd	r21, Z+1	; 0x01
     78e:	62 81       	ldd	r22, Z+2	; 0x02
     790:	73 81       	ldd	r23, Z+3	; 0x03
     792:	0c 5f       	subi	r16, 0xFC	; 252
     794:	1f 4f       	sbci	r17, 0xFF	; 255
     796:	2a 2d       	mov	r18, r10
     798:	8a e0       	ldi	r24, 0x0A	; 10
     79a:	8e de       	rcall	.-740    	; 0x4b8 <_Z18OLED_DisplayNumberhmh>
     79c:	4f c0       	rjmp	.+158    	; 0x83c <_Z11OLED_PrintfPKcz+0x1d8>
     79e:	ac 2c       	mov	r10, r12
     7a0:	f8 01       	movw	r30, r16
     7a2:	40 81       	ld	r20, Z
     7a4:	51 81       	ldd	r21, Z+1	; 0x01
     7a6:	0e 5f       	subi	r16, 0xFE	; 254
     7a8:	1f 4f       	sbci	r17, 0xFF	; 255
     7aa:	60 e0       	ldi	r22, 0x00	; 0
     7ac:	70 e0       	ldi	r23, 0x00	; 0
     7ae:	2a 2d       	mov	r18, r10
     7b0:	8b 2d       	mov	r24, r11
     7b2:	82 de       	rcall	.-764    	; 0x4b8 <_Z18OLED_DisplayNumberhmh>
     7b4:	43 c0       	rjmp	.+134    	; 0x83c <_Z11OLED_PrintfPKcz+0x1d8>
     7b6:	ac 2c       	mov	r10, r12
     7b8:	f8 01       	movw	r30, r16
     7ba:	40 81       	ld	r20, Z
     7bc:	51 81       	ldd	r21, Z+1	; 0x01
     7be:	62 81       	ldd	r22, Z+2	; 0x02
     7c0:	73 81       	ldd	r23, Z+3	; 0x03
     7c2:	0c 5f       	subi	r16, 0xFC	; 252
     7c4:	1f 4f       	sbci	r17, 0xFF	; 255
     7c6:	2a 2d       	mov	r18, r10
     7c8:	8b 2d       	mov	r24, r11
     7ca:	76 de       	rcall	.-788    	; 0x4b8 <_Z18OLED_DisplayNumberhmh>
     7cc:	37 c0       	rjmp	.+110    	; 0x83c <_Z11OLED_PrintfPKcz+0x1d8>
     7ce:	ac 2c       	mov	r10, r12
     7d0:	f8 01       	movw	r30, r16
     7d2:	40 81       	ld	r20, Z
     7d4:	51 81       	ldd	r21, Z+1	; 0x01
     7d6:	0e 5f       	subi	r16, 0xFE	; 254
     7d8:	1f 4f       	sbci	r17, 0xFF	; 255
     7da:	ff ef       	ldi	r31, 0xFF	; 255
     7dc:	af 12       	cpse	r10, r31
     7de:	01 c0       	rjmp	.+2      	; 0x7e2 <_Z11OLED_PrintfPKcz+0x17e>
     7e0:	ab 2c       	mov	r10, r11
     7e2:	60 e0       	ldi	r22, 0x00	; 0
     7e4:	70 e0       	ldi	r23, 0x00	; 0
     7e6:	2a 2d       	mov	r18, r10
     7e8:	82 e0       	ldi	r24, 0x02	; 2
     7ea:	66 de       	rcall	.-820    	; 0x4b8 <_Z18OLED_DisplayNumberhmh>
     7ec:	27 c0       	rjmp	.+78     	; 0x83c <_Z11OLED_PrintfPKcz+0x1d8>
     7ee:	f8 01       	movw	r30, r16
     7f0:	40 81       	ld	r20, Z
     7f2:	51 81       	ldd	r21, Z+1	; 0x01
     7f4:	62 81       	ldd	r22, Z+2	; 0x02
     7f6:	73 81       	ldd	r23, Z+3	; 0x03
     7f8:	0c 5f       	subi	r16, 0xFC	; 252
     7fa:	1f 4f       	sbci	r17, 0xFF	; 255
     7fc:	8f ef       	ldi	r24, 0xFF	; 255
     7fe:	a8 12       	cpse	r10, r24
     800:	01 c0       	rjmp	.+2      	; 0x804 <_Z11OLED_PrintfPKcz+0x1a0>
     802:	ab 2c       	mov	r10, r11
     804:	2a 2d       	mov	r18, r10
     806:	82 e0       	ldi	r24, 0x02	; 2
     808:	57 de       	rcall	.-850    	; 0x4b8 <_Z18OLED_DisplayNumberhmh>
     80a:	18 c0       	rjmp	.+48     	; 0x83c <_Z11OLED_PrintfPKcz+0x1d8>
     80c:	f8 01       	movw	r30, r16
     80e:	60 81       	ld	r22, Z
     810:	71 81       	ldd	r23, Z+1	; 0x01
     812:	82 81       	ldd	r24, Z+2	; 0x02
     814:	93 81       	ldd	r25, Z+3	; 0x03
     816:	0c 5f       	subi	r16, 0xFC	; 252
     818:	1f 4f       	sbci	r17, 0xFF	; 255
     81a:	f4 de       	rcall	.-536    	; 0x604 <_Z23OLED_DisplayFloatNumberd>
     81c:	0f c0       	rjmp	.+30     	; 0x83c <_Z11OLED_PrintfPKcz+0x1d8>
     81e:	48 01       	movw	r8, r16
     820:	a2 e0       	ldi	r26, 0x02	; 2
     822:	8a 0e       	add	r8, r26
     824:	91 1c       	adc	r9, r1
     826:	f8 01       	movw	r30, r16
     828:	80 81       	ld	r24, Z
     82a:	91 81       	ldd	r25, Z+1	; 0x01
     82c:	37 de       	rcall	.-914    	; 0x49c <_Z18OLED_DisplayStringPc>
     82e:	84 01       	movw	r16, r8
     830:	05 c0       	rjmp	.+10     	; 0x83c <_Z11OLED_PrintfPKcz+0x1d8>
     832:	85 e2       	ldi	r24, 0x25	; 37
     834:	ff dd       	rcall	.-1026   	; 0x434 <_Z16OLED_DisplayCharh>
     836:	02 c0       	rjmp	.+4      	; 0x83c <_Z11OLED_PrintfPKcz+0x1d8>
     838:	fd dd       	rcall	.-1030   	; 0x434 <_Z16OLED_DisplayCharh>
     83a:	74 01       	movw	r14, r8
     83c:	47 01       	movw	r8, r14
     83e:	ff ef       	ldi	r31, 0xFF	; 255
     840:	8f 1a       	sub	r8, r31
     842:	9f 0a       	sbc	r9, r31
     844:	d7 01       	movw	r26, r14
     846:	11 96       	adiw	r26, 0x01	; 1
     848:	8c 91       	ld	r24, X
     84a:	81 11       	cpse	r24, r1
     84c:	2d cf       	rjmp	.-422    	; 0x6a8 <_Z11OLED_PrintfPKcz+0x44>
     84e:	13 c0       	rjmp	.+38     	; 0x876 <_Z11OLED_PrintfPKcz+0x212>
     850:	f8 01       	movw	r30, r16
     852:	40 81       	ld	r20, Z
     854:	51 81       	ldd	r21, Z+1	; 0x01
     856:	62 81       	ldd	r22, Z+2	; 0x02
     858:	73 81       	ldd	r23, Z+3	; 0x03
     85a:	0c 5f       	subi	r16, 0xFC	; 252
     85c:	1f 4f       	sbci	r17, 0xFF	; 255
     85e:	ab 2c       	mov	r10, r11
     860:	d1 cf       	rjmp	.-94     	; 0x804 <_Z11OLED_PrintfPKcz+0x1a0>
     862:	8e 2f       	mov	r24, r30
     864:	90 e0       	ldi	r25, 0x00	; 0
     866:	fc 01       	movw	r30, r24
     868:	b5 97       	sbiw	r30, 0x25	; 37
     86a:	e4 35       	cpi	r30, 0x54	; 84
     86c:	f1 05       	cpc	r31, r1
     86e:	30 f7       	brcc	.-52     	; 0x83c <_Z11OLED_PrintfPKcz+0x1d8>
     870:	ed 59       	subi	r30, 0x9D	; 157
     872:	ff 4f       	sbci	r31, 0xFF	; 255
     874:	09 94       	ijmp
     876:	df 91       	pop	r29
     878:	cf 91       	pop	r28
     87a:	1f 91       	pop	r17
     87c:	0f 91       	pop	r16
     87e:	ff 90       	pop	r15
     880:	ef 90       	pop	r14
     882:	df 90       	pop	r13
     884:	cf 90       	pop	r12
     886:	bf 90       	pop	r11
     888:	af 90       	pop	r10
     88a:	9f 90       	pop	r9
     88c:	8f 90       	pop	r8
     88e:	7f 90       	pop	r7
     890:	6f 90       	pop	r6
     892:	5f 90       	pop	r5
     894:	4f 90       	pop	r4
     896:	08 95       	ret

00000898 <_Z8i2c_readh>:
     898:	cf 93       	push	r28
     89a:	df 93       	push	r29
     89c:	d8 2f       	mov	r29, r24
     89e:	b8 98       	cbi	0x17, 0	; 23
     8a0:	c2 98       	cbi	0x18, 2	; 24
     8a2:	1f b8       	out	0x0f, r1	; 15
     8a4:	80 ef       	ldi	r24, 0xF0	; 240
     8a6:	99 dc       	rcall	.-1742   	; 0x1da <_Z23USI_I2C_Master_Transferh>
     8a8:	c8 2f       	mov	r28, r24
     8aa:	b8 9a       	sbi	0x17, 0	; 23
     8ac:	d1 11       	cpse	r29, r1
     8ae:	02 c0       	rjmp	.+4      	; 0x8b4 <_Z8i2c_readh+0x1c>
     8b0:	1f b8       	out	0x0f, r1	; 15
     8b2:	02 c0       	rjmp	.+4      	; 0x8b8 <_Z8i2c_readh+0x20>
     8b4:	8f ef       	ldi	r24, 0xFF	; 255
     8b6:	8f b9       	out	0x0f, r24	; 15
     8b8:	8e ef       	ldi	r24, 0xFE	; 254
     8ba:	8f dc       	rcall	.-1762   	; 0x1da <_Z23USI_I2C_Master_Transferh>
     8bc:	8c 2f       	mov	r24, r28
     8be:	df 91       	pop	r29
     8c0:	cf 91       	pop	r28
     8c2:	08 95       	ret

000008c4 <_Z12IMU_readByteh>:
     8c4:	cf 93       	push	r28
     8c6:	c8 2f       	mov	r28, r24
     8c8:	86 ed       	ldi	r24, 0xD6	; 214
     8ca:	c1 dc       	rcall	.-1662   	; 0x24e <_Z9i2c_starth>
     8cc:	8c 2f       	mov	r24, r28
     8ce:	b1 dc       	rcall	.-1694   	; 0x232 <_Z9i2c_writeh>
     8d0:	9b dc       	rcall	.-1738   	; 0x208 <_Z8i2c_stopv>
     8d2:	8a e1       	ldi	r24, 0x1A	; 26
     8d4:	8a 95       	dec	r24
     8d6:	f1 f7       	brne	.-4      	; 0x8d4 <_Z12IMU_readByteh+0x10>
     8d8:	00 c0       	rjmp	.+0      	; 0x8da <_Z12IMU_readByteh+0x16>
     8da:	87 ed       	ldi	r24, 0xD7	; 215
     8dc:	b8 dc       	rcall	.-1680   	; 0x24e <_Z9i2c_starth>
     8de:	81 e0       	ldi	r24, 0x01	; 1
     8e0:	db df       	rcall	.-74     	; 0x898 <_Z8i2c_readh>
     8e2:	c8 2f       	mov	r28, r24
     8e4:	91 dc       	rcall	.-1758   	; 0x208 <_Z8i2c_stopv>
     8e6:	8c 2f       	mov	r24, r28
     8e8:	cf 91       	pop	r28
     8ea:	08 95       	ret

000008ec <_Z11IMU_X_Accelv>:
     8ec:	cf 93       	push	r28
     8ee:	89 e2       	ldi	r24, 0x29	; 41
     8f0:	e9 df       	rcall	.-46     	; 0x8c4 <_Z12IMU_readByteh>
     8f2:	c8 2f       	mov	r28, r24
     8f4:	88 e2       	ldi	r24, 0x28	; 40
     8f6:	e6 df       	rcall	.-52     	; 0x8c4 <_Z12IMU_readByteh>
     8f8:	2c 2f       	mov	r18, r28
     8fa:	30 e0       	ldi	r19, 0x00	; 0
     8fc:	32 2f       	mov	r19, r18
     8fe:	22 27       	eor	r18, r18
     900:	a9 01       	movw	r20, r18
     902:	48 2b       	or	r20, r24
     904:	ca 01       	movw	r24, r20
     906:	cf 91       	pop	r28
     908:	08 95       	ret

0000090a <_Z11IMU_Y_Accelv>:
     90a:	cf 93       	push	r28
     90c:	8b e2       	ldi	r24, 0x2B	; 43
     90e:	da df       	rcall	.-76     	; 0x8c4 <_Z12IMU_readByteh>
     910:	c8 2f       	mov	r28, r24
     912:	8a e2       	ldi	r24, 0x2A	; 42
     914:	d7 df       	rcall	.-82     	; 0x8c4 <_Z12IMU_readByteh>
     916:	2c 2f       	mov	r18, r28
     918:	30 e0       	ldi	r19, 0x00	; 0
     91a:	32 2f       	mov	r19, r18
     91c:	22 27       	eor	r18, r18
     91e:	a9 01       	movw	r20, r18
     920:	48 2b       	or	r20, r24
     922:	ca 01       	movw	r24, r20
     924:	cf 91       	pop	r28
     926:	08 95       	ret

00000928 <_Z11IMU_Z_Accelv>:
     928:	cf 93       	push	r28
     92a:	8d e2       	ldi	r24, 0x2D	; 45
     92c:	cb df       	rcall	.-106    	; 0x8c4 <_Z12IMU_readByteh>
     92e:	c8 2f       	mov	r28, r24
     930:	8c e2       	ldi	r24, 0x2C	; 44
     932:	c8 df       	rcall	.-112    	; 0x8c4 <_Z12IMU_readByteh>
     934:	2c 2f       	mov	r18, r28
     936:	30 e0       	ldi	r19, 0x00	; 0
     938:	32 2f       	mov	r19, r18
     93a:	22 27       	eor	r18, r18
     93c:	a9 01       	movw	r20, r18
     93e:	48 2b       	or	r20, r24
     940:	ca 01       	movw	r24, r20
     942:	cf 91       	pop	r28
     944:	08 95       	ret

00000946 <_Z14update_displayv>:
		//OLED_DisplayPixel_SET(uint8_t(vector_D[0]+64),uint8_t(vector_D[1]+32));
    }
}

void update_display (void){
	OLED_SetCursor(5, 95);
     946:	6f e5       	ldi	r22, 0x5F	; 95
     948:	85 e0       	ldi	r24, 0x05	; 5
     94a:	4c dd       	rcall	.-1384   	; 0x3e4 <_Z14OLED_SetCursorhh>
	OLED_DisplayNumber(C_DECIMAL_U8, (uint32_t)accelr_X, 5);
     94c:	40 91 08 02 	lds	r20, 0x0208	; 0x800208 <accelr_X>
     950:	50 91 09 02 	lds	r21, 0x0209	; 0x800209 <accelr_X+0x1>
     954:	05 2e       	mov	r0, r21
     956:	00 0c       	add	r0, r0
     958:	66 0b       	sbc	r22, r22
     95a:	77 0b       	sbc	r23, r23
     95c:	25 e0       	ldi	r18, 0x05	; 5
     95e:	8a e0       	ldi	r24, 0x0A	; 10
     960:	ab dd       	rcall	.-1194   	; 0x4b8 <_Z18OLED_DisplayNumberhmh>
	OLED_SetCursor(5, 3);
     962:	63 e0       	ldi	r22, 0x03	; 3
     964:	85 e0       	ldi	r24, 0x05	; 5
     966:	3e dd       	rcall	.-1412   	; 0x3e4 <_Z14OLED_SetCursorhh>
	OLED_Printf("(X)");
     968:	80 e9       	ldi	r24, 0x90	; 144
     96a:	90 e0       	ldi	r25, 0x00	; 0
     96c:	9f 93       	push	r25
     96e:	8f 93       	push	r24
     970:	79 de       	rcall	.-782    	; 0x664 <_Z11OLED_PrintfPKcz>
	OLED_SetCursor(5, 85);
     972:	65 e5       	ldi	r22, 0x55	; 85
     974:	85 e0       	ldi	r24, 0x05	; 5
     976:	36 dd       	rcall	.-1428   	; 0x3e4 <_Z14OLED_SetCursorhh>
	if (accelr_X>0){
     978:	0f 90       	pop	r0
     97a:	0f 90       	pop	r0
     97c:	80 91 08 02 	lds	r24, 0x0208	; 0x800208 <accelr_X>
     980:	90 91 09 02 	lds	r25, 0x0209	; 0x800209 <accelr_X+0x1>
     984:	18 16       	cp	r1, r24
     986:	19 06       	cpc	r1, r25
     988:	44 f4       	brge	.+16     	; 0x99a <_Z14update_displayv+0x54>
		OLED_Printf("+");
     98a:	84 e9       	ldi	r24, 0x94	; 148
     98c:	90 e0       	ldi	r25, 0x00	; 0
     98e:	9f 93       	push	r25
     990:	8f 93       	push	r24
     992:	68 de       	rcall	.-816    	; 0x664 <_Z11OLED_PrintfPKcz>
     994:	0f 90       	pop	r0
     996:	0f 90       	pop	r0
     998:	07 c0       	rjmp	.+14     	; 0x9a8 <_Z14update_displayv+0x62>
		}else{
		OLED_Printf("-");
     99a:	86 e9       	ldi	r24, 0x96	; 150
     99c:	90 e0       	ldi	r25, 0x00	; 0
     99e:	9f 93       	push	r25
     9a0:	8f 93       	push	r24
     9a2:	60 de       	rcall	.-832    	; 0x664 <_Z11OLED_PrintfPKcz>
     9a4:	0f 90       	pop	r0
     9a6:	0f 90       	pop	r0
	}
		
	OLED_SetCursor(6, 95);
     9a8:	6f e5       	ldi	r22, 0x5F	; 95
     9aa:	86 e0       	ldi	r24, 0x06	; 6
     9ac:	1b dd       	rcall	.-1482   	; 0x3e4 <_Z14OLED_SetCursorhh>
	OLED_DisplayNumber(C_DECIMAL_U8, (uint32_t)accelr_Y, 5);
     9ae:	40 91 06 02 	lds	r20, 0x0206	; 0x800206 <accelr_Y>
     9b2:	50 91 07 02 	lds	r21, 0x0207	; 0x800207 <accelr_Y+0x1>
     9b6:	05 2e       	mov	r0, r21
     9b8:	00 0c       	add	r0, r0
     9ba:	66 0b       	sbc	r22, r22
     9bc:	77 0b       	sbc	r23, r23
     9be:	25 e0       	ldi	r18, 0x05	; 5
     9c0:	8a e0       	ldi	r24, 0x0A	; 10
     9c2:	7a dd       	rcall	.-1292   	; 0x4b8 <_Z18OLED_DisplayNumberhmh>
	OLED_SetCursor(6, 3);
     9c4:	63 e0       	ldi	r22, 0x03	; 3
     9c6:	86 e0       	ldi	r24, 0x06	; 6
     9c8:	0d dd       	rcall	.-1510   	; 0x3e4 <_Z14OLED_SetCursorhh>
	OLED_Printf("(Y)");
     9ca:	88 e9       	ldi	r24, 0x98	; 152
     9cc:	90 e0       	ldi	r25, 0x00	; 0
     9ce:	9f 93       	push	r25
     9d0:	8f 93       	push	r24
     9d2:	48 de       	rcall	.-880    	; 0x664 <_Z11OLED_PrintfPKcz>
	OLED_SetCursor(6, 85);
     9d4:	65 e5       	ldi	r22, 0x55	; 85
     9d6:	86 e0       	ldi	r24, 0x06	; 6
     9d8:	05 dd       	rcall	.-1526   	; 0x3e4 <_Z14OLED_SetCursorhh>
	if (accelr_Y>0){
     9da:	0f 90       	pop	r0
     9dc:	0f 90       	pop	r0
     9de:	80 91 06 02 	lds	r24, 0x0206	; 0x800206 <accelr_Y>
     9e2:	90 91 07 02 	lds	r25, 0x0207	; 0x800207 <accelr_Y+0x1>
     9e6:	18 16       	cp	r1, r24
     9e8:	19 06       	cpc	r1, r25
     9ea:	44 f4       	brge	.+16     	; 0x9fc <_Z14update_displayv+0xb6>
		OLED_Printf("+");
     9ec:	84 e9       	ldi	r24, 0x94	; 148
     9ee:	90 e0       	ldi	r25, 0x00	; 0
     9f0:	9f 93       	push	r25
     9f2:	8f 93       	push	r24
     9f4:	37 de       	rcall	.-914    	; 0x664 <_Z11OLED_PrintfPKcz>
     9f6:	0f 90       	pop	r0
     9f8:	0f 90       	pop	r0
     9fa:	07 c0       	rjmp	.+14     	; 0xa0a <_Z14update_displayv+0xc4>
		}else{
		OLED_Printf("-");
     9fc:	86 e9       	ldi	r24, 0x96	; 150
     9fe:	90 e0       	ldi	r25, 0x00	; 0
     a00:	9f 93       	push	r25
     a02:	8f 93       	push	r24
     a04:	2f de       	rcall	.-930    	; 0x664 <_Z11OLED_PrintfPKcz>
     a06:	0f 90       	pop	r0
     a08:	0f 90       	pop	r0
	}
		
	OLED_SetCursor(7, 95);
     a0a:	6f e5       	ldi	r22, 0x5F	; 95
     a0c:	87 e0       	ldi	r24, 0x07	; 7
     a0e:	ea dc       	rcall	.-1580   	; 0x3e4 <_Z14OLED_SetCursorhh>
	OLED_DisplayNumber(C_DECIMAL_U8, (uint32_t)accelr_Z, 5);
     a10:	40 91 04 02 	lds	r20, 0x0204	; 0x800204 <accelr_Z>
     a14:	50 91 05 02 	lds	r21, 0x0205	; 0x800205 <accelr_Z+0x1>
     a18:	05 2e       	mov	r0, r21
     a1a:	00 0c       	add	r0, r0
     a1c:	66 0b       	sbc	r22, r22
     a1e:	77 0b       	sbc	r23, r23
     a20:	25 e0       	ldi	r18, 0x05	; 5
     a22:	8a e0       	ldi	r24, 0x0A	; 10
     a24:	49 dd       	rcall	.-1390   	; 0x4b8 <_Z18OLED_DisplayNumberhmh>
	OLED_SetCursor(7, 3);
     a26:	63 e0       	ldi	r22, 0x03	; 3
     a28:	87 e0       	ldi	r24, 0x07	; 7
     a2a:	dc dc       	rcall	.-1608   	; 0x3e4 <_Z14OLED_SetCursorhh>
	OLED_Printf("(Z)");
     a2c:	8c e9       	ldi	r24, 0x9C	; 156
     a2e:	90 e0       	ldi	r25, 0x00	; 0
     a30:	9f 93       	push	r25
     a32:	8f 93       	push	r24
     a34:	17 de       	rcall	.-978    	; 0x664 <_Z11OLED_PrintfPKcz>
	OLED_SetCursor(7, 85);
     a36:	65 e5       	ldi	r22, 0x55	; 85
     a38:	87 e0       	ldi	r24, 0x07	; 7
     a3a:	d4 dc       	rcall	.-1624   	; 0x3e4 <_Z14OLED_SetCursorhh>
	if (accelr_Z>0){
     a3c:	0f 90       	pop	r0
     a3e:	0f 90       	pop	r0
     a40:	80 91 04 02 	lds	r24, 0x0204	; 0x800204 <accelr_Z>
     a44:	90 91 05 02 	lds	r25, 0x0205	; 0x800205 <accelr_Z+0x1>
     a48:	18 16       	cp	r1, r24
     a4a:	19 06       	cpc	r1, r25
     a4c:	44 f4       	brge	.+16     	; 0xa5e <_Z14update_displayv+0x118>
		OLED_Printf("+");
     a4e:	84 e9       	ldi	r24, 0x94	; 148
     a50:	90 e0       	ldi	r25, 0x00	; 0
     a52:	9f 93       	push	r25
     a54:	8f 93       	push	r24
     a56:	06 de       	rcall	.-1012   	; 0x664 <_Z11OLED_PrintfPKcz>
     a58:	0f 90       	pop	r0
     a5a:	0f 90       	pop	r0
     a5c:	08 95       	ret
		}else{
		OLED_Printf("-");
     a5e:	86 e9       	ldi	r24, 0x96	; 150
     a60:	90 e0       	ldi	r25, 0x00	; 0
     a62:	9f 93       	push	r25
     a64:	8f 93       	push	r24
     a66:	fe dd       	rcall	.-1028   	; 0x664 <_Z11OLED_PrintfPKcz>
     a68:	0f 90       	pop	r0
     a6a:	0f 90       	pop	r0
     a6c:	08 95       	ret

00000a6e <main>:


void update_display(); //Declare function to update LCD.

int main(void)
{
     a6e:	cf 93       	push	r28
     a70:	df 93       	push	r29
     a72:	cd b7       	in	r28, 0x3d	; 61
     a74:	de b7       	in	r29, 0x3e	; 62
     a76:	2c 97       	sbiw	r28, 0x0c	; 12
     a78:	0f b6       	in	r0, 0x3f	; 63
     a7a:	f8 94       	cli
     a7c:	de bf       	out	0x3e, r29	; 62
     a7e:	0f be       	out	0x3f, r0	; 63
     a80:	cd bf       	out	0x3d, r28	; 61
    /* Replace with your application code */
	i2c_init(); //Init I2C Library. THIS MUST BE DONE BEFORE OLED AND IMU INIT
     a82:	a0 db       	rcall	.-2240   	; 0x1c4 <_Z8i2c_initv>
	OLED_Init();  //Init LCD
     a84:	7a dc       	rcall	.-1804   	; 0x37a <_Z9OLED_Initv>
	OLED_Clear(); //Clear LCD
     a86:	4e dc       	rcall	.-1892   	; 0x324 <_Z10OLED_Clearv>
	IMU_init();
     a88:	15 dc       	rcall	.-2006   	; 0x2b4 <_Z8IMU_initv>
	
	
	
	PORTB = (1<<PIN_BUTTON); //PB1 will be used as an input.
     a8a:	82 e0       	ldi	r24, 0x02	; 2
     a8c:	88 bb       	out	0x18, r24	; 24
		//pitch_X = IMU_X_Pitch();  //Angular Acceleration
		//roll_Y = IMU_Y_Roll();
		//yaw_Z = IMU_Z_Yaw();
		
		//Perform rotation of angle rotationMatrix[0] on vector_A. Save to vector_B
		vector_B[0] = vector_A4[0];
     a8e:	0c ee       	ldi	r16, 0xEC	; 236
     a90:	11 e0       	ldi	r17, 0x01	; 1
		vector_B[1] = vector_A4[1] * cos(rotationMatrix[0]) + vector_A4[2] * sin(rotationMatrix[0]);
		vector_B[2] = vector_A4[2] * cos(rotationMatrix[0]) - vector_A4[1] * sin(rotationMatrix[0]);
		
		//Perform rotation of angle rotationMatrix[1] on vector_B. Save to vector_C
		vector_C[0] = vector_B[0] * cos(rotationMatrix[1]) + vector_B[2] * sin(rotationMatrix[1]);
     a92:	0f 2e       	mov	r0, r31
     a94:	f0 ee       	ldi	r31, 0xE0	; 224
     a96:	2f 2e       	mov	r2, r31
     a98:	f1 e0       	ldi	r31, 0x01	; 1
     a9a:	3f 2e       	mov	r3, r31
     a9c:	f0 2d       	mov	r31, r0
	
	PORTB = (1<<PIN_BUTTON); //PB1 will be used as an input.
	
    while (1) 
    {
		accelr_X = IMU_X_Accel();  //Linear Acceleration
     a9e:	26 df       	rcall	.-436    	; 0x8ec <_Z11IMU_X_Accelv>
     aa0:	90 93 09 02 	sts	0x0209, r25	; 0x800209 <accelr_X+0x1>
     aa4:	80 93 08 02 	sts	0x0208, r24	; 0x800208 <accelr_X>
		accelr_Y = IMU_Y_Accel();
     aa8:	30 df       	rcall	.-416    	; 0x90a <_Z11IMU_Y_Accelv>
     aaa:	90 93 07 02 	sts	0x0207, r25	; 0x800207 <accelr_Y+0x1>
     aae:	80 93 06 02 	sts	0x0206, r24	; 0x800206 <accelr_Y>
		accelr_Z = IMU_Z_Accel();
     ab2:	3a df       	rcall	.-396    	; 0x928 <_Z11IMU_Z_Accelv>
     ab4:	90 93 05 02 	sts	0x0205, r25	; 0x800205 <accelr_Z+0x1>
     ab8:	80 93 04 02 	sts	0x0204, r24	; 0x800204 <accelr_Z>
		//pitch_X = IMU_X_Pitch();  //Angular Acceleration
		//roll_Y = IMU_Y_Roll();
		//yaw_Z = IMU_Z_Yaw();
		
		//Perform rotation of angle rotationMatrix[0] on vector_A. Save to vector_B
		vector_B[0] = vector_A4[0];
     abc:	a0 e6       	ldi	r26, 0x60	; 96
     abe:	b0 e0       	ldi	r27, 0x00	; 0
     ac0:	8d 90       	ld	r8, X+
     ac2:	9d 90       	ld	r9, X+
     ac4:	ad 90       	ld	r10, X+
     ac6:	bc 90       	ld	r11, X
     ac8:	f8 01       	movw	r30, r16
     aca:	80 82       	st	Z, r8
     acc:	91 82       	std	Z+1, r9	; 0x01
     ace:	a2 82       	std	Z+2, r10	; 0x02
     ad0:	b3 82       	std	Z+3, r11	; 0x03
		vector_B[1] = vector_A4[1] * cos(rotationMatrix[0]) + vector_A4[2] * sin(rotationMatrix[0]);
     ad2:	40 90 64 00 	lds	r4, 0x0064	; 0x800064 <__data_start+0x4>
     ad6:	50 90 65 00 	lds	r5, 0x0065	; 0x800065 <__data_start+0x5>
     ada:	60 90 66 00 	lds	r6, 0x0066	; 0x800066 <__data_start+0x6>
     ade:	70 90 67 00 	lds	r7, 0x0067	; 0x800067 <__data_start+0x7>
     ae2:	a8 ec       	ldi	r26, 0xC8	; 200
     ae4:	b1 e0       	ldi	r27, 0x01	; 1
     ae6:	cd 90       	ld	r12, X+
     ae8:	dd 90       	ld	r13, X+
     aea:	ed 90       	ld	r14, X+
     aec:	fc 90       	ld	r15, X
     aee:	c7 01       	movw	r24, r14
     af0:	b6 01       	movw	r22, r12
     af2:	d5 d6       	rcall	.+3498   	; 0x189e <cos>
     af4:	69 83       	std	Y+1, r22	; 0x01
     af6:	7a 83       	std	Y+2, r23	; 0x02
     af8:	8b 83       	std	Y+3, r24	; 0x03
     afa:	9c 83       	std	Y+4, r25	; 0x04
     afc:	80 91 68 00 	lds	r24, 0x0068	; 0x800068 <__data_start+0x8>
     b00:	90 91 69 00 	lds	r25, 0x0069	; 0x800069 <__data_start+0x9>
     b04:	a0 91 6a 00 	lds	r26, 0x006A	; 0x80006a <__data_start+0xa>
     b08:	b0 91 6b 00 	lds	r27, 0x006B	; 0x80006b <__data_start+0xb>
     b0c:	89 87       	std	Y+9, r24	; 0x09
     b0e:	9a 87       	std	Y+10, r25	; 0x0a
     b10:	ab 87       	std	Y+11, r26	; 0x0b
     b12:	bc 87       	std	Y+12, r27	; 0x0c
     b14:	c7 01       	movw	r24, r14
     b16:	b6 01       	movw	r22, r12
     b18:	23 d8       	rcall	.-4026   	; 0xfffffb60 <__eeprom_end+0xff7efb60>
     b1a:	6b 01       	movw	r12, r22
     b1c:	7c 01       	movw	r14, r24
     b1e:	29 81       	ldd	r18, Y+1	; 0x01
     b20:	3a 81       	ldd	r19, Y+2	; 0x02
     b22:	4b 81       	ldd	r20, Y+3	; 0x03
     b24:	5c 81       	ldd	r21, Y+4	; 0x04
     b26:	c3 01       	movw	r24, r6
     b28:	b2 01       	movw	r22, r4
     b2a:	af d7       	rcall	.+3934   	; 0x1a8a <__mulsf3>
     b2c:	6d 83       	std	Y+5, r22	; 0x05
     b2e:	7e 83       	std	Y+6, r23	; 0x06
     b30:	8f 83       	std	Y+7, r24	; 0x07
     b32:	98 87       	std	Y+8, r25	; 0x08
     b34:	a7 01       	movw	r20, r14
     b36:	96 01       	movw	r18, r12
     b38:	69 85       	ldd	r22, Y+9	; 0x09
     b3a:	7a 85       	ldd	r23, Y+10	; 0x0a
     b3c:	8b 85       	ldd	r24, Y+11	; 0x0b
     b3e:	9c 85       	ldd	r25, Y+12	; 0x0c
     b40:	a4 d7       	rcall	.+3912   	; 0x1a8a <__mulsf3>
     b42:	9b 01       	movw	r18, r22
     b44:	ac 01       	movw	r20, r24
     b46:	6d 81       	ldd	r22, Y+5	; 0x05
     b48:	7e 81       	ldd	r23, Y+6	; 0x06
     b4a:	8f 81       	ldd	r24, Y+7	; 0x07
     b4c:	98 85       	ldd	r25, Y+8	; 0x08
     b4e:	43 d6       	rcall	.+3206   	; 0x17d6 <__addsf3>
     b50:	6d 83       	std	Y+5, r22	; 0x05
     b52:	7e 83       	std	Y+6, r23	; 0x06
     b54:	8f 83       	std	Y+7, r24	; 0x07
     b56:	98 87       	std	Y+8, r25	; 0x08
     b58:	d8 01       	movw	r26, r16
     b5a:	14 96       	adiw	r26, 0x04	; 4
     b5c:	6d 93       	st	X+, r22
     b5e:	7d 93       	st	X+, r23
     b60:	8d 93       	st	X+, r24
     b62:	9c 93       	st	X, r25
     b64:	17 97       	sbiw	r26, 0x07	; 7
		vector_B[2] = vector_A4[2] * cos(rotationMatrix[0]) - vector_A4[1] * sin(rotationMatrix[0]);
     b66:	29 85       	ldd	r18, Y+9	; 0x09
     b68:	3a 85       	ldd	r19, Y+10	; 0x0a
     b6a:	4b 85       	ldd	r20, Y+11	; 0x0b
     b6c:	5c 85       	ldd	r21, Y+12	; 0x0c
     b6e:	69 81       	ldd	r22, Y+1	; 0x01
     b70:	7a 81       	ldd	r23, Y+2	; 0x02
     b72:	8b 81       	ldd	r24, Y+3	; 0x03
     b74:	9c 81       	ldd	r25, Y+4	; 0x04
     b76:	89 d7       	rcall	.+3858   	; 0x1a8a <__mulsf3>
     b78:	69 83       	std	Y+1, r22	; 0x01
     b7a:	7a 83       	std	Y+2, r23	; 0x02
     b7c:	8b 83       	std	Y+3, r24	; 0x03
     b7e:	9c 83       	std	Y+4, r25	; 0x04
     b80:	a7 01       	movw	r20, r14
     b82:	96 01       	movw	r18, r12
     b84:	c3 01       	movw	r24, r6
     b86:	b2 01       	movw	r22, r4
     b88:	80 d7       	rcall	.+3840   	; 0x1a8a <__mulsf3>
     b8a:	9b 01       	movw	r18, r22
     b8c:	ac 01       	movw	r20, r24
     b8e:	69 81       	ldd	r22, Y+1	; 0x01
     b90:	7a 81       	ldd	r23, Y+2	; 0x02
     b92:	8b 81       	ldd	r24, Y+3	; 0x03
     b94:	9c 81       	ldd	r25, Y+4	; 0x04
     b96:	1e d6       	rcall	.+3132   	; 0x17d4 <__subsf3>
     b98:	6b 01       	movw	r12, r22
     b9a:	7c 01       	movw	r14, r24
     b9c:	f8 01       	movw	r30, r16
     b9e:	60 87       	std	Z+8, r22	; 0x08
     ba0:	71 87       	std	Z+9, r23	; 0x09
     ba2:	82 87       	std	Z+10, r24	; 0x0a
     ba4:	93 87       	std	Z+11, r25	; 0x0b
		
		//Perform rotation of angle rotationMatrix[1] on vector_B. Save to vector_C
		vector_C[0] = vector_B[0] * cos(rotationMatrix[1]) + vector_B[2] * sin(rotationMatrix[1]);
     ba6:	40 90 cc 01 	lds	r4, 0x01CC	; 0x8001cc <__data_end+0x4>
     baa:	50 90 cd 01 	lds	r5, 0x01CD	; 0x8001cd <__data_end+0x5>
     bae:	60 90 ce 01 	lds	r6, 0x01CE	; 0x8001ce <__data_end+0x6>
     bb2:	70 90 cf 01 	lds	r7, 0x01CF	; 0x8001cf <__data_end+0x7>
     bb6:	c3 01       	movw	r24, r6
     bb8:	b2 01       	movw	r22, r4
     bba:	71 d6       	rcall	.+3298   	; 0x189e <cos>
     bbc:	69 83       	std	Y+1, r22	; 0x01
     bbe:	7a 83       	std	Y+2, r23	; 0x02
     bc0:	8b 83       	std	Y+3, r24	; 0x03
     bc2:	9c 83       	std	Y+4, r25	; 0x04
     bc4:	c3 01       	movw	r24, r6
     bc6:	b2 01       	movw	r22, r4
     bc8:	cb d7       	rcall	.+3990   	; 0x1b60 <sin>
     bca:	69 87       	std	Y+9, r22	; 0x09
     bcc:	7a 87       	std	Y+10, r23	; 0x0a
     bce:	8b 87       	std	Y+11, r24	; 0x0b
     bd0:	9c 87       	std	Y+12, r25	; 0x0c
     bd2:	29 81       	ldd	r18, Y+1	; 0x01
     bd4:	3a 81       	ldd	r19, Y+2	; 0x02
     bd6:	4b 81       	ldd	r20, Y+3	; 0x03
     bd8:	5c 81       	ldd	r21, Y+4	; 0x04
     bda:	c5 01       	movw	r24, r10
     bdc:	b4 01       	movw	r22, r8
     bde:	55 d7       	rcall	.+3754   	; 0x1a8a <__mulsf3>
     be0:	2b 01       	movw	r4, r22
     be2:	3c 01       	movw	r6, r24
     be4:	29 85       	ldd	r18, Y+9	; 0x09
     be6:	3a 85       	ldd	r19, Y+10	; 0x0a
     be8:	4b 85       	ldd	r20, Y+11	; 0x0b
     bea:	5c 85       	ldd	r21, Y+12	; 0x0c
     bec:	c7 01       	movw	r24, r14
     bee:	b6 01       	movw	r22, r12
     bf0:	4c d7       	rcall	.+3736   	; 0x1a8a <__mulsf3>
     bf2:	9b 01       	movw	r18, r22
     bf4:	ac 01       	movw	r20, r24
     bf6:	c3 01       	movw	r24, r6
     bf8:	b2 01       	movw	r22, r4
     bfa:	ed d5       	rcall	.+3034   	; 0x17d6 <__addsf3>
     bfc:	2b 01       	movw	r4, r22
     bfe:	3c 01       	movw	r6, r24
     c00:	d1 01       	movw	r26, r2
     c02:	6d 93       	st	X+, r22
     c04:	7d 93       	st	X+, r23
     c06:	8d 93       	st	X+, r24
     c08:	9c 93       	st	X, r25
     c0a:	13 97       	sbiw	r26, 0x03	; 3
		vector_C[1] = vector_B[1];
     c0c:	8d 81       	ldd	r24, Y+5	; 0x05
     c0e:	9e 81       	ldd	r25, Y+6	; 0x06
     c10:	af 81       	ldd	r26, Y+7	; 0x07
     c12:	b8 85       	ldd	r27, Y+8	; 0x08
     c14:	f1 01       	movw	r30, r2
     c16:	84 83       	std	Z+4, r24	; 0x04
     c18:	95 83       	std	Z+5, r25	; 0x05
     c1a:	a6 83       	std	Z+6, r26	; 0x06
     c1c:	b7 83       	std	Z+7, r27	; 0x07
		vector_C[2] = vector_B[2] * cos(rotationMatrix[1]) - vector_B[0] * sin(rotationMatrix[1]);
     c1e:	29 81       	ldd	r18, Y+1	; 0x01
     c20:	3a 81       	ldd	r19, Y+2	; 0x02
     c22:	4b 81       	ldd	r20, Y+3	; 0x03
     c24:	5c 81       	ldd	r21, Y+4	; 0x04
     c26:	c7 01       	movw	r24, r14
     c28:	b6 01       	movw	r22, r12
     c2a:	2f d7       	rcall	.+3678   	; 0x1a8a <__mulsf3>
     c2c:	6b 01       	movw	r12, r22
     c2e:	7c 01       	movw	r14, r24
     c30:	29 85       	ldd	r18, Y+9	; 0x09
     c32:	3a 85       	ldd	r19, Y+10	; 0x0a
     c34:	4b 85       	ldd	r20, Y+11	; 0x0b
     c36:	5c 85       	ldd	r21, Y+12	; 0x0c
     c38:	c5 01       	movw	r24, r10
     c3a:	b4 01       	movw	r22, r8
     c3c:	26 d7       	rcall	.+3660   	; 0x1a8a <__mulsf3>
     c3e:	9b 01       	movw	r18, r22
     c40:	ac 01       	movw	r20, r24
     c42:	c7 01       	movw	r24, r14
     c44:	b6 01       	movw	r22, r12
     c46:	c6 d5       	rcall	.+2956   	; 0x17d4 <__subsf3>
     c48:	4b 01       	movw	r8, r22
     c4a:	5c 01       	movw	r10, r24
     c4c:	d1 01       	movw	r26, r2
     c4e:	18 96       	adiw	r26, 0x08	; 8
     c50:	6d 93       	st	X+, r22
     c52:	7d 93       	st	X+, r23
     c54:	8d 93       	st	X+, r24
     c56:	9c 93       	st	X, r25
     c58:	1b 97       	sbiw	r26, 0x0b	; 11
		
		//Perform rotation of angle rotationMatrix[3] on vector_C. Save to vector_D
		vector_D[0] = vector_C[0] * cos(rotationMatrix[2]) + vector_C[1] * sin(rotationMatrix[2]);
     c5a:	c0 90 d0 01 	lds	r12, 0x01D0	; 0x8001d0 <__data_end+0x8>
     c5e:	d0 90 d1 01 	lds	r13, 0x01D1	; 0x8001d1 <__data_end+0x9>
     c62:	e0 90 d2 01 	lds	r14, 0x01D2	; 0x8001d2 <__data_end+0xa>
     c66:	f0 90 d3 01 	lds	r15, 0x01D3	; 0x8001d3 <__data_end+0xb>
     c6a:	c7 01       	movw	r24, r14
     c6c:	b6 01       	movw	r22, r12
     c6e:	17 d6       	rcall	.+3118   	; 0x189e <cos>
     c70:	69 83       	std	Y+1, r22	; 0x01
     c72:	7a 83       	std	Y+2, r23	; 0x02
     c74:	8b 83       	std	Y+3, r24	; 0x03
     c76:	9c 83       	std	Y+4, r25	; 0x04
     c78:	c7 01       	movw	r24, r14
     c7a:	b6 01       	movw	r22, r12
     c7c:	71 d7       	rcall	.+3810   	; 0x1b60 <sin>
     c7e:	69 87       	std	Y+9, r22	; 0x09
     c80:	7a 87       	std	Y+10, r23	; 0x0a
     c82:	8b 87       	std	Y+11, r24	; 0x0b
     c84:	9c 87       	std	Y+12, r25	; 0x0c
     c86:	29 81       	ldd	r18, Y+1	; 0x01
     c88:	3a 81       	ldd	r19, Y+2	; 0x02
     c8a:	4b 81       	ldd	r20, Y+3	; 0x03
     c8c:	5c 81       	ldd	r21, Y+4	; 0x04
     c8e:	c3 01       	movw	r24, r6
     c90:	b2 01       	movw	r22, r4
     c92:	fb d6       	rcall	.+3574   	; 0x1a8a <__mulsf3>
     c94:	6b 01       	movw	r12, r22
     c96:	7c 01       	movw	r14, r24
     c98:	29 85       	ldd	r18, Y+9	; 0x09
     c9a:	3a 85       	ldd	r19, Y+10	; 0x0a
     c9c:	4b 85       	ldd	r20, Y+11	; 0x0b
     c9e:	5c 85       	ldd	r21, Y+12	; 0x0c
     ca0:	6d 81       	ldd	r22, Y+5	; 0x05
     ca2:	7e 81       	ldd	r23, Y+6	; 0x06
     ca4:	8f 81       	ldd	r24, Y+7	; 0x07
     ca6:	98 85       	ldd	r25, Y+8	; 0x08
     ca8:	f0 d6       	rcall	.+3552   	; 0x1a8a <__mulsf3>
     caa:	9b 01       	movw	r18, r22
     cac:	ac 01       	movw	r20, r24
     cae:	c7 01       	movw	r24, r14
     cb0:	b6 01       	movw	r22, r12
     cb2:	91 d5       	rcall	.+2850   	; 0x17d6 <__addsf3>
     cb4:	6b 01       	movw	r12, r22
     cb6:	7c 01       	movw	r14, r24
     cb8:	e4 ed       	ldi	r30, 0xD4	; 212
     cba:	f1 e0       	ldi	r31, 0x01	; 1
     cbc:	60 83       	st	Z, r22
     cbe:	71 83       	std	Z+1, r23	; 0x01
     cc0:	82 83       	std	Z+2, r24	; 0x02
     cc2:	93 83       	std	Z+3, r25	; 0x03
		vector_D[1] = vector_C[1] * cos(rotationMatrix[2]) - vector_C[0] * sin(rotationMatrix[2]);
     cc4:	29 81       	ldd	r18, Y+1	; 0x01
     cc6:	3a 81       	ldd	r19, Y+2	; 0x02
     cc8:	4b 81       	ldd	r20, Y+3	; 0x03
     cca:	5c 81       	ldd	r21, Y+4	; 0x04
     ccc:	6d 81       	ldd	r22, Y+5	; 0x05
     cce:	7e 81       	ldd	r23, Y+6	; 0x06
     cd0:	8f 81       	ldd	r24, Y+7	; 0x07
     cd2:	98 85       	ldd	r25, Y+8	; 0x08
     cd4:	da d6       	rcall	.+3508   	; 0x1a8a <__mulsf3>
     cd6:	6d 83       	std	Y+5, r22	; 0x05
     cd8:	7e 83       	std	Y+6, r23	; 0x06
     cda:	8f 83       	std	Y+7, r24	; 0x07
     cdc:	98 87       	std	Y+8, r25	; 0x08
     cde:	29 85       	ldd	r18, Y+9	; 0x09
     ce0:	3a 85       	ldd	r19, Y+10	; 0x0a
     ce2:	4b 85       	ldd	r20, Y+11	; 0x0b
     ce4:	5c 85       	ldd	r21, Y+12	; 0x0c
     ce6:	c3 01       	movw	r24, r6
     ce8:	b2 01       	movw	r22, r4
     cea:	cf d6       	rcall	.+3486   	; 0x1a8a <__mulsf3>
     cec:	9b 01       	movw	r18, r22
     cee:	ac 01       	movw	r20, r24
     cf0:	6d 81       	ldd	r22, Y+5	; 0x05
     cf2:	7e 81       	ldd	r23, Y+6	; 0x06
     cf4:	8f 81       	ldd	r24, Y+7	; 0x07
     cf6:	98 85       	ldd	r25, Y+8	; 0x08
     cf8:	6d d5       	rcall	.+2778   	; 0x17d4 <__subsf3>
     cfa:	60 93 d8 01 	sts	0x01D8, r22	; 0x8001d8 <vector_D+0x4>
     cfe:	70 93 d9 01 	sts	0x01D9, r23	; 0x8001d9 <vector_D+0x5>
     d02:	80 93 da 01 	sts	0x01DA, r24	; 0x8001da <vector_D+0x6>
     d06:	90 93 db 01 	sts	0x01DB, r25	; 0x8001db <vector_D+0x7>
		vector_D[2] = vector_C[2];
     d0a:	80 92 dc 01 	sts	0x01DC, r8	; 0x8001dc <vector_D+0x8>
     d0e:	90 92 dd 01 	sts	0x01DD, r9	; 0x8001dd <vector_D+0x9>
     d12:	a0 92 de 01 	sts	0x01DE, r10	; 0x8001de <vector_D+0xa>
     d16:	b0 92 df 01 	sts	0x01DF, r11	; 0x8001df <vector_D+0xb>
		OLED_DisplayPixel_SET(uint8_t(vector_D[0]+64),uint8_t(vector_D[1]+32));
     d1a:	20 e0       	ldi	r18, 0x00	; 0
     d1c:	30 e0       	ldi	r19, 0x00	; 0
     d1e:	40 e0       	ldi	r20, 0x00	; 0
     d20:	52 e4       	ldi	r21, 0x42	; 66
     d22:	59 d5       	rcall	.+2738   	; 0x17d6 <__addsf3>
     d24:	bf d5       	rcall	.+2942   	; 0x18a4 <__fixunssfsi>
     d26:	b6 2e       	mov	r11, r22
     d28:	20 e0       	ldi	r18, 0x00	; 0
     d2a:	30 e0       	ldi	r19, 0x00	; 0
     d2c:	40 e8       	ldi	r20, 0x80	; 128
     d2e:	52 e4       	ldi	r21, 0x42	; 66
     d30:	c7 01       	movw	r24, r14
     d32:	b6 01       	movw	r22, r12
     d34:	50 d5       	rcall	.+2720   	; 0x17d6 <__addsf3>
     d36:	b6 d5       	rcall	.+2924   	; 0x18a4 <__fixunssfsi>
     d38:	86 2f       	mov	r24, r22
     d3a:	6b 2d       	mov	r22, r11
     d3c:	d1 da       	rcall	.-2654   	; 0x2e0 <_Z21OLED_DisplayPixel_SEThh>
		
		//Perform rotation of angle rotationMatrix[0] on vector_A. Save to vector_B
		vector_B[0] = vector_A3[0];
     d3e:	a8 ef       	ldi	r26, 0xF8	; 248
     d40:	b1 e0       	ldi	r27, 0x01	; 1
     d42:	8d 90       	ld	r8, X+
     d44:	9d 90       	ld	r9, X+
     d46:	ad 90       	ld	r10, X+
     d48:	bc 90       	ld	r11, X
     d4a:	f8 01       	movw	r30, r16
     d4c:	80 82       	st	Z, r8
     d4e:	91 82       	std	Z+1, r9	; 0x01
     d50:	a2 82       	std	Z+2, r10	; 0x02
     d52:	b3 82       	std	Z+3, r11	; 0x03
		vector_B[1] = vector_A3[1] * cos(rotationMatrix[0]) + vector_A3[2] * sin(rotationMatrix[0]);
     d54:	40 90 fc 01 	lds	r4, 0x01FC	; 0x8001fc <vector_A3+0x4>
     d58:	50 90 fd 01 	lds	r5, 0x01FD	; 0x8001fd <vector_A3+0x5>
     d5c:	60 90 fe 01 	lds	r6, 0x01FE	; 0x8001fe <vector_A3+0x6>
     d60:	70 90 ff 01 	lds	r7, 0x01FF	; 0x8001ff <vector_A3+0x7>
     d64:	a8 ec       	ldi	r26, 0xC8	; 200
     d66:	b1 e0       	ldi	r27, 0x01	; 1
     d68:	cd 90       	ld	r12, X+
     d6a:	dd 90       	ld	r13, X+
     d6c:	ed 90       	ld	r14, X+
     d6e:	fc 90       	ld	r15, X
     d70:	c7 01       	movw	r24, r14
     d72:	b6 01       	movw	r22, r12
     d74:	94 d5       	rcall	.+2856   	; 0x189e <cos>
     d76:	69 83       	std	Y+1, r22	; 0x01
     d78:	7a 83       	std	Y+2, r23	; 0x02
     d7a:	8b 83       	std	Y+3, r24	; 0x03
     d7c:	9c 83       	std	Y+4, r25	; 0x04
     d7e:	80 91 00 02 	lds	r24, 0x0200	; 0x800200 <vector_A3+0x8>
     d82:	90 91 01 02 	lds	r25, 0x0201	; 0x800201 <vector_A3+0x9>
     d86:	a0 91 02 02 	lds	r26, 0x0202	; 0x800202 <vector_A3+0xa>
     d8a:	b0 91 03 02 	lds	r27, 0x0203	; 0x800203 <vector_A3+0xb>
     d8e:	89 87       	std	Y+9, r24	; 0x09
     d90:	9a 87       	std	Y+10, r25	; 0x0a
     d92:	ab 87       	std	Y+11, r26	; 0x0b
     d94:	bc 87       	std	Y+12, r27	; 0x0c
     d96:	c7 01       	movw	r24, r14
     d98:	b6 01       	movw	r22, r12
     d9a:	e2 d6       	rcall	.+3524   	; 0x1b60 <sin>
     d9c:	6b 01       	movw	r12, r22
     d9e:	7c 01       	movw	r14, r24
     da0:	29 81       	ldd	r18, Y+1	; 0x01
     da2:	3a 81       	ldd	r19, Y+2	; 0x02
     da4:	4b 81       	ldd	r20, Y+3	; 0x03
     da6:	5c 81       	ldd	r21, Y+4	; 0x04
     da8:	c3 01       	movw	r24, r6
     daa:	b2 01       	movw	r22, r4
     dac:	6e d6       	rcall	.+3292   	; 0x1a8a <__mulsf3>
     dae:	6d 83       	std	Y+5, r22	; 0x05
     db0:	7e 83       	std	Y+6, r23	; 0x06
     db2:	8f 83       	std	Y+7, r24	; 0x07
     db4:	98 87       	std	Y+8, r25	; 0x08
     db6:	a7 01       	movw	r20, r14
     db8:	96 01       	movw	r18, r12
     dba:	69 85       	ldd	r22, Y+9	; 0x09
     dbc:	7a 85       	ldd	r23, Y+10	; 0x0a
     dbe:	8b 85       	ldd	r24, Y+11	; 0x0b
     dc0:	9c 85       	ldd	r25, Y+12	; 0x0c
     dc2:	63 d6       	rcall	.+3270   	; 0x1a8a <__mulsf3>
     dc4:	9b 01       	movw	r18, r22
     dc6:	ac 01       	movw	r20, r24
     dc8:	6d 81       	ldd	r22, Y+5	; 0x05
     dca:	7e 81       	ldd	r23, Y+6	; 0x06
     dcc:	8f 81       	ldd	r24, Y+7	; 0x07
     dce:	98 85       	ldd	r25, Y+8	; 0x08
     dd0:	02 d5       	rcall	.+2564   	; 0x17d6 <__addsf3>
     dd2:	6d 83       	std	Y+5, r22	; 0x05
     dd4:	7e 83       	std	Y+6, r23	; 0x06
     dd6:	8f 83       	std	Y+7, r24	; 0x07
     dd8:	98 87       	std	Y+8, r25	; 0x08
     dda:	d8 01       	movw	r26, r16
     ddc:	14 96       	adiw	r26, 0x04	; 4
     dde:	6d 93       	st	X+, r22
     de0:	7d 93       	st	X+, r23
     de2:	8d 93       	st	X+, r24
     de4:	9c 93       	st	X, r25
     de6:	17 97       	sbiw	r26, 0x07	; 7
		vector_B[2] = vector_A3[2] * cos(rotationMatrix[0]) - vector_A3[1] * sin(rotationMatrix[0]);
     de8:	29 85       	ldd	r18, Y+9	; 0x09
     dea:	3a 85       	ldd	r19, Y+10	; 0x0a
     dec:	4b 85       	ldd	r20, Y+11	; 0x0b
     dee:	5c 85       	ldd	r21, Y+12	; 0x0c
     df0:	69 81       	ldd	r22, Y+1	; 0x01
     df2:	7a 81       	ldd	r23, Y+2	; 0x02
     df4:	8b 81       	ldd	r24, Y+3	; 0x03
     df6:	9c 81       	ldd	r25, Y+4	; 0x04
     df8:	48 d6       	rcall	.+3216   	; 0x1a8a <__mulsf3>
     dfa:	69 83       	std	Y+1, r22	; 0x01
     dfc:	7a 83       	std	Y+2, r23	; 0x02
     dfe:	8b 83       	std	Y+3, r24	; 0x03
     e00:	9c 83       	std	Y+4, r25	; 0x04
     e02:	a7 01       	movw	r20, r14
     e04:	96 01       	movw	r18, r12
     e06:	c3 01       	movw	r24, r6
     e08:	b2 01       	movw	r22, r4
     e0a:	3f d6       	rcall	.+3198   	; 0x1a8a <__mulsf3>
     e0c:	9b 01       	movw	r18, r22
     e0e:	ac 01       	movw	r20, r24
     e10:	69 81       	ldd	r22, Y+1	; 0x01
     e12:	7a 81       	ldd	r23, Y+2	; 0x02
     e14:	8b 81       	ldd	r24, Y+3	; 0x03
     e16:	9c 81       	ldd	r25, Y+4	; 0x04
     e18:	dd d4       	rcall	.+2490   	; 0x17d4 <__subsf3>
     e1a:	6b 01       	movw	r12, r22
     e1c:	7c 01       	movw	r14, r24
     e1e:	f8 01       	movw	r30, r16
     e20:	60 87       	std	Z+8, r22	; 0x08
     e22:	71 87       	std	Z+9, r23	; 0x09
     e24:	82 87       	std	Z+10, r24	; 0x0a
     e26:	93 87       	std	Z+11, r25	; 0x0b
		
		//Perform rotation of angle rotationMatrix[1] on vector_B. Save to vector_C
		vector_C[0] = vector_B[0] * cos(rotationMatrix[1]) + vector_B[2] * sin(rotationMatrix[1]);
     e28:	40 90 cc 01 	lds	r4, 0x01CC	; 0x8001cc <__data_end+0x4>
     e2c:	50 90 cd 01 	lds	r5, 0x01CD	; 0x8001cd <__data_end+0x5>
     e30:	60 90 ce 01 	lds	r6, 0x01CE	; 0x8001ce <__data_end+0x6>
     e34:	70 90 cf 01 	lds	r7, 0x01CF	; 0x8001cf <__data_end+0x7>
     e38:	c3 01       	movw	r24, r6
     e3a:	b2 01       	movw	r22, r4
     e3c:	30 d5       	rcall	.+2656   	; 0x189e <cos>
     e3e:	69 83       	std	Y+1, r22	; 0x01
     e40:	7a 83       	std	Y+2, r23	; 0x02
     e42:	8b 83       	std	Y+3, r24	; 0x03
     e44:	9c 83       	std	Y+4, r25	; 0x04
     e46:	c3 01       	movw	r24, r6
     e48:	b2 01       	movw	r22, r4
     e4a:	8a d6       	rcall	.+3348   	; 0x1b60 <sin>
     e4c:	69 87       	std	Y+9, r22	; 0x09
     e4e:	7a 87       	std	Y+10, r23	; 0x0a
     e50:	8b 87       	std	Y+11, r24	; 0x0b
     e52:	9c 87       	std	Y+12, r25	; 0x0c
     e54:	29 81       	ldd	r18, Y+1	; 0x01
     e56:	3a 81       	ldd	r19, Y+2	; 0x02
     e58:	4b 81       	ldd	r20, Y+3	; 0x03
     e5a:	5c 81       	ldd	r21, Y+4	; 0x04
     e5c:	c5 01       	movw	r24, r10
     e5e:	b4 01       	movw	r22, r8
     e60:	14 d6       	rcall	.+3112   	; 0x1a8a <__mulsf3>
     e62:	2b 01       	movw	r4, r22
     e64:	3c 01       	movw	r6, r24
     e66:	29 85       	ldd	r18, Y+9	; 0x09
     e68:	3a 85       	ldd	r19, Y+10	; 0x0a
     e6a:	4b 85       	ldd	r20, Y+11	; 0x0b
     e6c:	5c 85       	ldd	r21, Y+12	; 0x0c
     e6e:	c7 01       	movw	r24, r14
     e70:	b6 01       	movw	r22, r12
     e72:	0b d6       	rcall	.+3094   	; 0x1a8a <__mulsf3>
     e74:	9b 01       	movw	r18, r22
     e76:	ac 01       	movw	r20, r24
     e78:	c3 01       	movw	r24, r6
     e7a:	b2 01       	movw	r22, r4
     e7c:	ac d4       	rcall	.+2392   	; 0x17d6 <__addsf3>
     e7e:	2b 01       	movw	r4, r22
     e80:	3c 01       	movw	r6, r24
     e82:	d1 01       	movw	r26, r2
     e84:	6d 93       	st	X+, r22
     e86:	7d 93       	st	X+, r23
     e88:	8d 93       	st	X+, r24
     e8a:	9c 93       	st	X, r25
     e8c:	13 97       	sbiw	r26, 0x03	; 3
		vector_C[1] = vector_B[1];
     e8e:	8d 81       	ldd	r24, Y+5	; 0x05
     e90:	9e 81       	ldd	r25, Y+6	; 0x06
     e92:	af 81       	ldd	r26, Y+7	; 0x07
     e94:	b8 85       	ldd	r27, Y+8	; 0x08
     e96:	f1 01       	movw	r30, r2
     e98:	84 83       	std	Z+4, r24	; 0x04
     e9a:	95 83       	std	Z+5, r25	; 0x05
     e9c:	a6 83       	std	Z+6, r26	; 0x06
     e9e:	b7 83       	std	Z+7, r27	; 0x07
		vector_C[2] = vector_B[2] * cos(rotationMatrix[1]) - vector_B[0] * sin(rotationMatrix[1]);
     ea0:	29 81       	ldd	r18, Y+1	; 0x01
     ea2:	3a 81       	ldd	r19, Y+2	; 0x02
     ea4:	4b 81       	ldd	r20, Y+3	; 0x03
     ea6:	5c 81       	ldd	r21, Y+4	; 0x04
     ea8:	c7 01       	movw	r24, r14
     eaa:	b6 01       	movw	r22, r12
     eac:	ee d5       	rcall	.+3036   	; 0x1a8a <__mulsf3>
     eae:	6b 01       	movw	r12, r22
     eb0:	7c 01       	movw	r14, r24
     eb2:	29 85       	ldd	r18, Y+9	; 0x09
     eb4:	3a 85       	ldd	r19, Y+10	; 0x0a
     eb6:	4b 85       	ldd	r20, Y+11	; 0x0b
     eb8:	5c 85       	ldd	r21, Y+12	; 0x0c
     eba:	c5 01       	movw	r24, r10
     ebc:	b4 01       	movw	r22, r8
     ebe:	e5 d5       	rcall	.+3018   	; 0x1a8a <__mulsf3>
     ec0:	9b 01       	movw	r18, r22
     ec2:	ac 01       	movw	r20, r24
     ec4:	c7 01       	movw	r24, r14
     ec6:	b6 01       	movw	r22, r12
     ec8:	85 d4       	rcall	.+2314   	; 0x17d4 <__subsf3>
     eca:	4b 01       	movw	r8, r22
     ecc:	5c 01       	movw	r10, r24
     ece:	d1 01       	movw	r26, r2
     ed0:	18 96       	adiw	r26, 0x08	; 8
     ed2:	6d 93       	st	X+, r22
     ed4:	7d 93       	st	X+, r23
     ed6:	8d 93       	st	X+, r24
     ed8:	9c 93       	st	X, r25
     eda:	1b 97       	sbiw	r26, 0x0b	; 11
		
		//Perform rotation of angle rotationMatrix[3] on vector_C. Save to vector_D
		vector_D[0] = vector_C[0] * cos(rotationMatrix[2]) + vector_C[1] * sin(rotationMatrix[2]);
     edc:	c0 90 d0 01 	lds	r12, 0x01D0	; 0x8001d0 <__data_end+0x8>
     ee0:	d0 90 d1 01 	lds	r13, 0x01D1	; 0x8001d1 <__data_end+0x9>
     ee4:	e0 90 d2 01 	lds	r14, 0x01D2	; 0x8001d2 <__data_end+0xa>
     ee8:	f0 90 d3 01 	lds	r15, 0x01D3	; 0x8001d3 <__data_end+0xb>
     eec:	c7 01       	movw	r24, r14
     eee:	b6 01       	movw	r22, r12
     ef0:	d6 d4       	rcall	.+2476   	; 0x189e <cos>
     ef2:	69 83       	std	Y+1, r22	; 0x01
     ef4:	7a 83       	std	Y+2, r23	; 0x02
     ef6:	8b 83       	std	Y+3, r24	; 0x03
     ef8:	9c 83       	std	Y+4, r25	; 0x04
     efa:	c7 01       	movw	r24, r14
     efc:	b6 01       	movw	r22, r12
     efe:	30 d6       	rcall	.+3168   	; 0x1b60 <sin>
     f00:	69 87       	std	Y+9, r22	; 0x09
     f02:	7a 87       	std	Y+10, r23	; 0x0a
     f04:	8b 87       	std	Y+11, r24	; 0x0b
     f06:	9c 87       	std	Y+12, r25	; 0x0c
     f08:	29 81       	ldd	r18, Y+1	; 0x01
     f0a:	3a 81       	ldd	r19, Y+2	; 0x02
     f0c:	4b 81       	ldd	r20, Y+3	; 0x03
     f0e:	5c 81       	ldd	r21, Y+4	; 0x04
     f10:	c3 01       	movw	r24, r6
     f12:	b2 01       	movw	r22, r4
     f14:	ba d5       	rcall	.+2932   	; 0x1a8a <__mulsf3>
     f16:	6b 01       	movw	r12, r22
     f18:	7c 01       	movw	r14, r24
     f1a:	29 85       	ldd	r18, Y+9	; 0x09
     f1c:	3a 85       	ldd	r19, Y+10	; 0x0a
     f1e:	4b 85       	ldd	r20, Y+11	; 0x0b
     f20:	5c 85       	ldd	r21, Y+12	; 0x0c
     f22:	6d 81       	ldd	r22, Y+5	; 0x05
     f24:	7e 81       	ldd	r23, Y+6	; 0x06
     f26:	8f 81       	ldd	r24, Y+7	; 0x07
     f28:	98 85       	ldd	r25, Y+8	; 0x08
     f2a:	af d5       	rcall	.+2910   	; 0x1a8a <__mulsf3>
     f2c:	9b 01       	movw	r18, r22
     f2e:	ac 01       	movw	r20, r24
     f30:	c7 01       	movw	r24, r14
     f32:	b6 01       	movw	r22, r12
     f34:	50 d4       	rcall	.+2208   	; 0x17d6 <__addsf3>
     f36:	6b 01       	movw	r12, r22
     f38:	7c 01       	movw	r14, r24
     f3a:	e4 ed       	ldi	r30, 0xD4	; 212
     f3c:	f1 e0       	ldi	r31, 0x01	; 1
     f3e:	60 83       	st	Z, r22
     f40:	71 83       	std	Z+1, r23	; 0x01
     f42:	82 83       	std	Z+2, r24	; 0x02
     f44:	93 83       	std	Z+3, r25	; 0x03
		vector_D[1] = vector_C[1] * cos(rotationMatrix[2]) - vector_C[0] * sin(rotationMatrix[2]);
     f46:	29 81       	ldd	r18, Y+1	; 0x01
     f48:	3a 81       	ldd	r19, Y+2	; 0x02
     f4a:	4b 81       	ldd	r20, Y+3	; 0x03
     f4c:	5c 81       	ldd	r21, Y+4	; 0x04
     f4e:	6d 81       	ldd	r22, Y+5	; 0x05
     f50:	7e 81       	ldd	r23, Y+6	; 0x06
     f52:	8f 81       	ldd	r24, Y+7	; 0x07
     f54:	98 85       	ldd	r25, Y+8	; 0x08
     f56:	99 d5       	rcall	.+2866   	; 0x1a8a <__mulsf3>
     f58:	6d 83       	std	Y+5, r22	; 0x05
     f5a:	7e 83       	std	Y+6, r23	; 0x06
     f5c:	8f 83       	std	Y+7, r24	; 0x07
     f5e:	98 87       	std	Y+8, r25	; 0x08
     f60:	29 85       	ldd	r18, Y+9	; 0x09
     f62:	3a 85       	ldd	r19, Y+10	; 0x0a
     f64:	4b 85       	ldd	r20, Y+11	; 0x0b
     f66:	5c 85       	ldd	r21, Y+12	; 0x0c
     f68:	c3 01       	movw	r24, r6
     f6a:	b2 01       	movw	r22, r4
     f6c:	8e d5       	rcall	.+2844   	; 0x1a8a <__mulsf3>
     f6e:	9b 01       	movw	r18, r22
     f70:	ac 01       	movw	r20, r24
     f72:	6d 81       	ldd	r22, Y+5	; 0x05
     f74:	7e 81       	ldd	r23, Y+6	; 0x06
     f76:	8f 81       	ldd	r24, Y+7	; 0x07
     f78:	98 85       	ldd	r25, Y+8	; 0x08
     f7a:	2c d4       	rcall	.+2136   	; 0x17d4 <__subsf3>
     f7c:	60 93 d8 01 	sts	0x01D8, r22	; 0x8001d8 <vector_D+0x4>
     f80:	70 93 d9 01 	sts	0x01D9, r23	; 0x8001d9 <vector_D+0x5>
     f84:	80 93 da 01 	sts	0x01DA, r24	; 0x8001da <vector_D+0x6>
     f88:	90 93 db 01 	sts	0x01DB, r25	; 0x8001db <vector_D+0x7>
		vector_D[2] = vector_C[2];
     f8c:	80 92 dc 01 	sts	0x01DC, r8	; 0x8001dc <vector_D+0x8>
     f90:	90 92 dd 01 	sts	0x01DD, r9	; 0x8001dd <vector_D+0x9>
     f94:	a0 92 de 01 	sts	0x01DE, r10	; 0x8001de <vector_D+0xa>
     f98:	b0 92 df 01 	sts	0x01DF, r11	; 0x8001df <vector_D+0xb>
		OLED_DisplayPixel_SET(uint8_t(vector_D[0]+64),uint8_t(vector_D[1]+32));
     f9c:	20 e0       	ldi	r18, 0x00	; 0
     f9e:	30 e0       	ldi	r19, 0x00	; 0
     fa0:	40 e0       	ldi	r20, 0x00	; 0
     fa2:	52 e4       	ldi	r21, 0x42	; 66
     fa4:	18 d4       	rcall	.+2096   	; 0x17d6 <__addsf3>
     fa6:	7e d4       	rcall	.+2300   	; 0x18a4 <__fixunssfsi>
     fa8:	b6 2e       	mov	r11, r22
     faa:	20 e0       	ldi	r18, 0x00	; 0
     fac:	30 e0       	ldi	r19, 0x00	; 0
     fae:	40 e8       	ldi	r20, 0x80	; 128
     fb0:	52 e4       	ldi	r21, 0x42	; 66
     fb2:	c7 01       	movw	r24, r14
     fb4:	b6 01       	movw	r22, r12
     fb6:	0f d4       	rcall	.+2078   	; 0x17d6 <__addsf3>
     fb8:	75 d4       	rcall	.+2282   	; 0x18a4 <__fixunssfsi>
     fba:	86 2f       	mov	r24, r22
     fbc:	6b 2d       	mov	r22, r11
     fbe:	90 d9       	rcall	.-3296   	; 0x2e0 <_Z21OLED_DisplayPixel_SEThh>
		
		//Perform rotation of angle rotationMatrix[0] on vector_A. Save to vector_B
		vector_B[0] = vector_A2[0];
     fc0:	ac e6       	ldi	r26, 0x6C	; 108
     fc2:	b0 e0       	ldi	r27, 0x00	; 0
     fc4:	8d 90       	ld	r8, X+
     fc6:	9d 90       	ld	r9, X+
     fc8:	ad 90       	ld	r10, X+
     fca:	bc 90       	ld	r11, X
     fcc:	f8 01       	movw	r30, r16
     fce:	80 82       	st	Z, r8
     fd0:	91 82       	std	Z+1, r9	; 0x01
     fd2:	a2 82       	std	Z+2, r10	; 0x02
     fd4:	b3 82       	std	Z+3, r11	; 0x03
		vector_B[1] = vector_A2[1] * cos(rotationMatrix[0]) + vector_A2[2] * sin(rotationMatrix[0]);
     fd6:	40 90 70 00 	lds	r4, 0x0070	; 0x800070 <vector_A2+0x4>
     fda:	50 90 71 00 	lds	r5, 0x0071	; 0x800071 <vector_A2+0x5>
     fde:	60 90 72 00 	lds	r6, 0x0072	; 0x800072 <vector_A2+0x6>
     fe2:	70 90 73 00 	lds	r7, 0x0073	; 0x800073 <vector_A2+0x7>
     fe6:	a8 ec       	ldi	r26, 0xC8	; 200
     fe8:	b1 e0       	ldi	r27, 0x01	; 1
     fea:	cd 90       	ld	r12, X+
     fec:	dd 90       	ld	r13, X+
     fee:	ed 90       	ld	r14, X+
     ff0:	fc 90       	ld	r15, X
     ff2:	c7 01       	movw	r24, r14
     ff4:	b6 01       	movw	r22, r12
     ff6:	53 d4       	rcall	.+2214   	; 0x189e <cos>
     ff8:	69 83       	std	Y+1, r22	; 0x01
     ffa:	7a 83       	std	Y+2, r23	; 0x02
     ffc:	8b 83       	std	Y+3, r24	; 0x03
     ffe:	9c 83       	std	Y+4, r25	; 0x04
    1000:	80 91 74 00 	lds	r24, 0x0074	; 0x800074 <vector_A2+0x8>
    1004:	90 91 75 00 	lds	r25, 0x0075	; 0x800075 <vector_A2+0x9>
    1008:	a0 91 76 00 	lds	r26, 0x0076	; 0x800076 <vector_A2+0xa>
    100c:	b0 91 77 00 	lds	r27, 0x0077	; 0x800077 <vector_A2+0xb>
    1010:	89 87       	std	Y+9, r24	; 0x09
    1012:	9a 87       	std	Y+10, r25	; 0x0a
    1014:	ab 87       	std	Y+11, r26	; 0x0b
    1016:	bc 87       	std	Y+12, r27	; 0x0c
    1018:	c7 01       	movw	r24, r14
    101a:	b6 01       	movw	r22, r12
    101c:	a1 d5       	rcall	.+2882   	; 0x1b60 <sin>
    101e:	6b 01       	movw	r12, r22
    1020:	7c 01       	movw	r14, r24
    1022:	29 81       	ldd	r18, Y+1	; 0x01
    1024:	3a 81       	ldd	r19, Y+2	; 0x02
    1026:	4b 81       	ldd	r20, Y+3	; 0x03
    1028:	5c 81       	ldd	r21, Y+4	; 0x04
    102a:	c3 01       	movw	r24, r6
    102c:	b2 01       	movw	r22, r4
    102e:	2d d5       	rcall	.+2650   	; 0x1a8a <__mulsf3>
    1030:	6d 83       	std	Y+5, r22	; 0x05
    1032:	7e 83       	std	Y+6, r23	; 0x06
    1034:	8f 83       	std	Y+7, r24	; 0x07
    1036:	98 87       	std	Y+8, r25	; 0x08
    1038:	a7 01       	movw	r20, r14
    103a:	96 01       	movw	r18, r12
    103c:	69 85       	ldd	r22, Y+9	; 0x09
    103e:	7a 85       	ldd	r23, Y+10	; 0x0a
    1040:	8b 85       	ldd	r24, Y+11	; 0x0b
    1042:	9c 85       	ldd	r25, Y+12	; 0x0c
    1044:	22 d5       	rcall	.+2628   	; 0x1a8a <__mulsf3>
    1046:	9b 01       	movw	r18, r22
    1048:	ac 01       	movw	r20, r24
    104a:	6d 81       	ldd	r22, Y+5	; 0x05
    104c:	7e 81       	ldd	r23, Y+6	; 0x06
    104e:	8f 81       	ldd	r24, Y+7	; 0x07
    1050:	98 85       	ldd	r25, Y+8	; 0x08
    1052:	c1 d3       	rcall	.+1922   	; 0x17d6 <__addsf3>
    1054:	6d 83       	std	Y+5, r22	; 0x05
    1056:	7e 83       	std	Y+6, r23	; 0x06
    1058:	8f 83       	std	Y+7, r24	; 0x07
    105a:	98 87       	std	Y+8, r25	; 0x08
    105c:	d8 01       	movw	r26, r16
    105e:	14 96       	adiw	r26, 0x04	; 4
    1060:	6d 93       	st	X+, r22
    1062:	7d 93       	st	X+, r23
    1064:	8d 93       	st	X+, r24
    1066:	9c 93       	st	X, r25
    1068:	17 97       	sbiw	r26, 0x07	; 7
		vector_B[2] = vector_A2[2] * cos(rotationMatrix[0]) - vector_A2[1] * sin(rotationMatrix[0]);
    106a:	29 85       	ldd	r18, Y+9	; 0x09
    106c:	3a 85       	ldd	r19, Y+10	; 0x0a
    106e:	4b 85       	ldd	r20, Y+11	; 0x0b
    1070:	5c 85       	ldd	r21, Y+12	; 0x0c
    1072:	69 81       	ldd	r22, Y+1	; 0x01
    1074:	7a 81       	ldd	r23, Y+2	; 0x02
    1076:	8b 81       	ldd	r24, Y+3	; 0x03
    1078:	9c 81       	ldd	r25, Y+4	; 0x04
    107a:	07 d5       	rcall	.+2574   	; 0x1a8a <__mulsf3>
    107c:	69 83       	std	Y+1, r22	; 0x01
    107e:	7a 83       	std	Y+2, r23	; 0x02
    1080:	8b 83       	std	Y+3, r24	; 0x03
    1082:	9c 83       	std	Y+4, r25	; 0x04
    1084:	a7 01       	movw	r20, r14
    1086:	96 01       	movw	r18, r12
    1088:	c3 01       	movw	r24, r6
    108a:	b2 01       	movw	r22, r4
    108c:	fe d4       	rcall	.+2556   	; 0x1a8a <__mulsf3>
    108e:	9b 01       	movw	r18, r22
    1090:	ac 01       	movw	r20, r24
    1092:	69 81       	ldd	r22, Y+1	; 0x01
    1094:	7a 81       	ldd	r23, Y+2	; 0x02
    1096:	8b 81       	ldd	r24, Y+3	; 0x03
    1098:	9c 81       	ldd	r25, Y+4	; 0x04
    109a:	9c d3       	rcall	.+1848   	; 0x17d4 <__subsf3>
    109c:	6b 01       	movw	r12, r22
    109e:	7c 01       	movw	r14, r24
    10a0:	f8 01       	movw	r30, r16
    10a2:	60 87       	std	Z+8, r22	; 0x08
    10a4:	71 87       	std	Z+9, r23	; 0x09
    10a6:	82 87       	std	Z+10, r24	; 0x0a
    10a8:	93 87       	std	Z+11, r25	; 0x0b
		
		//Perform rotation of angle rotationMatrix[1] on vector_B. Save to vector_C
		vector_C[0] = vector_B[0] * cos(rotationMatrix[1]) + vector_B[2] * sin(rotationMatrix[1]);
    10aa:	40 90 cc 01 	lds	r4, 0x01CC	; 0x8001cc <__data_end+0x4>
    10ae:	50 90 cd 01 	lds	r5, 0x01CD	; 0x8001cd <__data_end+0x5>
    10b2:	60 90 ce 01 	lds	r6, 0x01CE	; 0x8001ce <__data_end+0x6>
    10b6:	70 90 cf 01 	lds	r7, 0x01CF	; 0x8001cf <__data_end+0x7>
    10ba:	c3 01       	movw	r24, r6
    10bc:	b2 01       	movw	r22, r4
    10be:	ef d3       	rcall	.+2014   	; 0x189e <cos>
    10c0:	69 83       	std	Y+1, r22	; 0x01
    10c2:	7a 83       	std	Y+2, r23	; 0x02
    10c4:	8b 83       	std	Y+3, r24	; 0x03
    10c6:	9c 83       	std	Y+4, r25	; 0x04
    10c8:	c3 01       	movw	r24, r6
    10ca:	b2 01       	movw	r22, r4
    10cc:	49 d5       	rcall	.+2706   	; 0x1b60 <sin>
    10ce:	69 87       	std	Y+9, r22	; 0x09
    10d0:	7a 87       	std	Y+10, r23	; 0x0a
    10d2:	8b 87       	std	Y+11, r24	; 0x0b
    10d4:	9c 87       	std	Y+12, r25	; 0x0c
    10d6:	29 81       	ldd	r18, Y+1	; 0x01
    10d8:	3a 81       	ldd	r19, Y+2	; 0x02
    10da:	4b 81       	ldd	r20, Y+3	; 0x03
    10dc:	5c 81       	ldd	r21, Y+4	; 0x04
    10de:	c5 01       	movw	r24, r10
    10e0:	b4 01       	movw	r22, r8
    10e2:	d3 d4       	rcall	.+2470   	; 0x1a8a <__mulsf3>
    10e4:	2b 01       	movw	r4, r22
    10e6:	3c 01       	movw	r6, r24
    10e8:	29 85       	ldd	r18, Y+9	; 0x09
    10ea:	3a 85       	ldd	r19, Y+10	; 0x0a
    10ec:	4b 85       	ldd	r20, Y+11	; 0x0b
    10ee:	5c 85       	ldd	r21, Y+12	; 0x0c
    10f0:	c7 01       	movw	r24, r14
    10f2:	b6 01       	movw	r22, r12
    10f4:	ca d4       	rcall	.+2452   	; 0x1a8a <__mulsf3>
    10f6:	9b 01       	movw	r18, r22
    10f8:	ac 01       	movw	r20, r24
    10fa:	c3 01       	movw	r24, r6
    10fc:	b2 01       	movw	r22, r4
    10fe:	6b d3       	rcall	.+1750   	; 0x17d6 <__addsf3>
    1100:	2b 01       	movw	r4, r22
    1102:	3c 01       	movw	r6, r24
    1104:	d1 01       	movw	r26, r2
    1106:	6d 93       	st	X+, r22
    1108:	7d 93       	st	X+, r23
    110a:	8d 93       	st	X+, r24
    110c:	9c 93       	st	X, r25
    110e:	13 97       	sbiw	r26, 0x03	; 3
		vector_C[1] = vector_B[1];
    1110:	8d 81       	ldd	r24, Y+5	; 0x05
    1112:	9e 81       	ldd	r25, Y+6	; 0x06
    1114:	af 81       	ldd	r26, Y+7	; 0x07
    1116:	b8 85       	ldd	r27, Y+8	; 0x08
    1118:	f1 01       	movw	r30, r2
    111a:	84 83       	std	Z+4, r24	; 0x04
    111c:	95 83       	std	Z+5, r25	; 0x05
    111e:	a6 83       	std	Z+6, r26	; 0x06
    1120:	b7 83       	std	Z+7, r27	; 0x07
		vector_C[2] = vector_B[2] * cos(rotationMatrix[1]) - vector_B[0] * sin(rotationMatrix[1]);
    1122:	29 81       	ldd	r18, Y+1	; 0x01
    1124:	3a 81       	ldd	r19, Y+2	; 0x02
    1126:	4b 81       	ldd	r20, Y+3	; 0x03
    1128:	5c 81       	ldd	r21, Y+4	; 0x04
    112a:	c7 01       	movw	r24, r14
    112c:	b6 01       	movw	r22, r12
    112e:	ad d4       	rcall	.+2394   	; 0x1a8a <__mulsf3>
    1130:	6b 01       	movw	r12, r22
    1132:	7c 01       	movw	r14, r24
    1134:	29 85       	ldd	r18, Y+9	; 0x09
    1136:	3a 85       	ldd	r19, Y+10	; 0x0a
    1138:	4b 85       	ldd	r20, Y+11	; 0x0b
    113a:	5c 85       	ldd	r21, Y+12	; 0x0c
    113c:	c5 01       	movw	r24, r10
    113e:	b4 01       	movw	r22, r8
    1140:	a4 d4       	rcall	.+2376   	; 0x1a8a <__mulsf3>
    1142:	9b 01       	movw	r18, r22
    1144:	ac 01       	movw	r20, r24
    1146:	c7 01       	movw	r24, r14
    1148:	b6 01       	movw	r22, r12
    114a:	44 d3       	rcall	.+1672   	; 0x17d4 <__subsf3>
    114c:	4b 01       	movw	r8, r22
    114e:	5c 01       	movw	r10, r24
    1150:	d1 01       	movw	r26, r2
    1152:	18 96       	adiw	r26, 0x08	; 8
    1154:	6d 93       	st	X+, r22
    1156:	7d 93       	st	X+, r23
    1158:	8d 93       	st	X+, r24
    115a:	9c 93       	st	X, r25
    115c:	1b 97       	sbiw	r26, 0x0b	; 11
		
		//Perform rotation of angle rotationMatrix[3] on vector_C. Save to vector_D
		vector_D[0] = vector_C[0] * cos(rotationMatrix[2]) + vector_C[1] * sin(rotationMatrix[2]);
    115e:	c0 90 d0 01 	lds	r12, 0x01D0	; 0x8001d0 <__data_end+0x8>
    1162:	d0 90 d1 01 	lds	r13, 0x01D1	; 0x8001d1 <__data_end+0x9>
    1166:	e0 90 d2 01 	lds	r14, 0x01D2	; 0x8001d2 <__data_end+0xa>
    116a:	f0 90 d3 01 	lds	r15, 0x01D3	; 0x8001d3 <__data_end+0xb>
    116e:	c7 01       	movw	r24, r14
    1170:	b6 01       	movw	r22, r12
    1172:	95 d3       	rcall	.+1834   	; 0x189e <cos>
    1174:	69 83       	std	Y+1, r22	; 0x01
    1176:	7a 83       	std	Y+2, r23	; 0x02
    1178:	8b 83       	std	Y+3, r24	; 0x03
    117a:	9c 83       	std	Y+4, r25	; 0x04
    117c:	c7 01       	movw	r24, r14
    117e:	b6 01       	movw	r22, r12
    1180:	ef d4       	rcall	.+2526   	; 0x1b60 <sin>
    1182:	69 87       	std	Y+9, r22	; 0x09
    1184:	7a 87       	std	Y+10, r23	; 0x0a
    1186:	8b 87       	std	Y+11, r24	; 0x0b
    1188:	9c 87       	std	Y+12, r25	; 0x0c
    118a:	29 81       	ldd	r18, Y+1	; 0x01
    118c:	3a 81       	ldd	r19, Y+2	; 0x02
    118e:	4b 81       	ldd	r20, Y+3	; 0x03
    1190:	5c 81       	ldd	r21, Y+4	; 0x04
    1192:	c3 01       	movw	r24, r6
    1194:	b2 01       	movw	r22, r4
    1196:	79 d4       	rcall	.+2290   	; 0x1a8a <__mulsf3>
    1198:	6b 01       	movw	r12, r22
    119a:	7c 01       	movw	r14, r24
    119c:	29 85       	ldd	r18, Y+9	; 0x09
    119e:	3a 85       	ldd	r19, Y+10	; 0x0a
    11a0:	4b 85       	ldd	r20, Y+11	; 0x0b
    11a2:	5c 85       	ldd	r21, Y+12	; 0x0c
    11a4:	6d 81       	ldd	r22, Y+5	; 0x05
    11a6:	7e 81       	ldd	r23, Y+6	; 0x06
    11a8:	8f 81       	ldd	r24, Y+7	; 0x07
    11aa:	98 85       	ldd	r25, Y+8	; 0x08
    11ac:	6e d4       	rcall	.+2268   	; 0x1a8a <__mulsf3>
    11ae:	9b 01       	movw	r18, r22
    11b0:	ac 01       	movw	r20, r24
    11b2:	c7 01       	movw	r24, r14
    11b4:	b6 01       	movw	r22, r12
    11b6:	0f d3       	rcall	.+1566   	; 0x17d6 <__addsf3>
    11b8:	6b 01       	movw	r12, r22
    11ba:	7c 01       	movw	r14, r24
    11bc:	e4 ed       	ldi	r30, 0xD4	; 212
    11be:	f1 e0       	ldi	r31, 0x01	; 1
    11c0:	60 83       	st	Z, r22
    11c2:	71 83       	std	Z+1, r23	; 0x01
    11c4:	82 83       	std	Z+2, r24	; 0x02
    11c6:	93 83       	std	Z+3, r25	; 0x03
		vector_D[1] = vector_C[1] * cos(rotationMatrix[2]) - vector_C[0] * sin(rotationMatrix[2]);
    11c8:	29 81       	ldd	r18, Y+1	; 0x01
    11ca:	3a 81       	ldd	r19, Y+2	; 0x02
    11cc:	4b 81       	ldd	r20, Y+3	; 0x03
    11ce:	5c 81       	ldd	r21, Y+4	; 0x04
    11d0:	6d 81       	ldd	r22, Y+5	; 0x05
    11d2:	7e 81       	ldd	r23, Y+6	; 0x06
    11d4:	8f 81       	ldd	r24, Y+7	; 0x07
    11d6:	98 85       	ldd	r25, Y+8	; 0x08
    11d8:	58 d4       	rcall	.+2224   	; 0x1a8a <__mulsf3>
    11da:	6d 83       	std	Y+5, r22	; 0x05
    11dc:	7e 83       	std	Y+6, r23	; 0x06
    11de:	8f 83       	std	Y+7, r24	; 0x07
    11e0:	98 87       	std	Y+8, r25	; 0x08
    11e2:	29 85       	ldd	r18, Y+9	; 0x09
    11e4:	3a 85       	ldd	r19, Y+10	; 0x0a
    11e6:	4b 85       	ldd	r20, Y+11	; 0x0b
    11e8:	5c 85       	ldd	r21, Y+12	; 0x0c
    11ea:	c3 01       	movw	r24, r6
    11ec:	b2 01       	movw	r22, r4
    11ee:	4d d4       	rcall	.+2202   	; 0x1a8a <__mulsf3>
    11f0:	9b 01       	movw	r18, r22
    11f2:	ac 01       	movw	r20, r24
    11f4:	6d 81       	ldd	r22, Y+5	; 0x05
    11f6:	7e 81       	ldd	r23, Y+6	; 0x06
    11f8:	8f 81       	ldd	r24, Y+7	; 0x07
    11fa:	98 85       	ldd	r25, Y+8	; 0x08
    11fc:	eb d2       	rcall	.+1494   	; 0x17d4 <__subsf3>
    11fe:	60 93 d8 01 	sts	0x01D8, r22	; 0x8001d8 <vector_D+0x4>
    1202:	70 93 d9 01 	sts	0x01D9, r23	; 0x8001d9 <vector_D+0x5>
    1206:	80 93 da 01 	sts	0x01DA, r24	; 0x8001da <vector_D+0x6>
    120a:	90 93 db 01 	sts	0x01DB, r25	; 0x8001db <vector_D+0x7>
		vector_D[2] = vector_C[2];
    120e:	80 92 dc 01 	sts	0x01DC, r8	; 0x8001dc <vector_D+0x8>
    1212:	90 92 dd 01 	sts	0x01DD, r9	; 0x8001dd <vector_D+0x9>
    1216:	a0 92 de 01 	sts	0x01DE, r10	; 0x8001de <vector_D+0xa>
    121a:	b0 92 df 01 	sts	0x01DF, r11	; 0x8001df <vector_D+0xb>
		OLED_DisplayPixel_SET(uint8_t(vector_D[0]+64),uint8_t(vector_D[1]+32));
    121e:	20 e0       	ldi	r18, 0x00	; 0
    1220:	30 e0       	ldi	r19, 0x00	; 0
    1222:	40 e0       	ldi	r20, 0x00	; 0
    1224:	52 e4       	ldi	r21, 0x42	; 66
    1226:	d7 d2       	rcall	.+1454   	; 0x17d6 <__addsf3>
    1228:	3d d3       	rcall	.+1658   	; 0x18a4 <__fixunssfsi>
    122a:	b6 2e       	mov	r11, r22
    122c:	20 e0       	ldi	r18, 0x00	; 0
    122e:	30 e0       	ldi	r19, 0x00	; 0
    1230:	40 e8       	ldi	r20, 0x80	; 128
    1232:	52 e4       	ldi	r21, 0x42	; 66
    1234:	c7 01       	movw	r24, r14
    1236:	b6 01       	movw	r22, r12
    1238:	ce d2       	rcall	.+1436   	; 0x17d6 <__addsf3>
    123a:	34 d3       	rcall	.+1640   	; 0x18a4 <__fixunssfsi>
    123c:	86 2f       	mov	r24, r22
    123e:	6b 2d       	mov	r22, r11
    1240:	4f d8       	rcall	.-3938   	; 0x2e0 <_Z21OLED_DisplayPixel_SEThh>
			
		//Perform rotation of angle rotationMatrix[0] on vector_A. Save to vector_B
		vector_B[0] = vector_A1[0];
    1242:	a8 e7       	ldi	r26, 0x78	; 120
    1244:	b0 e0       	ldi	r27, 0x00	; 0
    1246:	8d 90       	ld	r8, X+
    1248:	9d 90       	ld	r9, X+
    124a:	ad 90       	ld	r10, X+
    124c:	bc 90       	ld	r11, X
    124e:	f8 01       	movw	r30, r16
    1250:	80 82       	st	Z, r8
    1252:	91 82       	std	Z+1, r9	; 0x01
    1254:	a2 82       	std	Z+2, r10	; 0x02
    1256:	b3 82       	std	Z+3, r11	; 0x03
		vector_B[1] = vector_A1[1] * cos(rotationMatrix[0]) + vector_A1[2] * sin(rotationMatrix[0]);
    1258:	40 90 7c 00 	lds	r4, 0x007C	; 0x80007c <vector_A1+0x4>
    125c:	50 90 7d 00 	lds	r5, 0x007D	; 0x80007d <vector_A1+0x5>
    1260:	60 90 7e 00 	lds	r6, 0x007E	; 0x80007e <vector_A1+0x6>
    1264:	70 90 7f 00 	lds	r7, 0x007F	; 0x80007f <vector_A1+0x7>
    1268:	a8 ec       	ldi	r26, 0xC8	; 200
    126a:	b1 e0       	ldi	r27, 0x01	; 1
    126c:	cd 90       	ld	r12, X+
    126e:	dd 90       	ld	r13, X+
    1270:	ed 90       	ld	r14, X+
    1272:	fc 90       	ld	r15, X
    1274:	c7 01       	movw	r24, r14
    1276:	b6 01       	movw	r22, r12
    1278:	12 d3       	rcall	.+1572   	; 0x189e <cos>
    127a:	69 83       	std	Y+1, r22	; 0x01
    127c:	7a 83       	std	Y+2, r23	; 0x02
    127e:	8b 83       	std	Y+3, r24	; 0x03
    1280:	9c 83       	std	Y+4, r25	; 0x04
    1282:	80 91 80 00 	lds	r24, 0x0080	; 0x800080 <vector_A1+0x8>
    1286:	90 91 81 00 	lds	r25, 0x0081	; 0x800081 <vector_A1+0x9>
    128a:	a0 91 82 00 	lds	r26, 0x0082	; 0x800082 <vector_A1+0xa>
    128e:	b0 91 83 00 	lds	r27, 0x0083	; 0x800083 <vector_A1+0xb>
    1292:	89 87       	std	Y+9, r24	; 0x09
    1294:	9a 87       	std	Y+10, r25	; 0x0a
    1296:	ab 87       	std	Y+11, r26	; 0x0b
    1298:	bc 87       	std	Y+12, r27	; 0x0c
    129a:	c7 01       	movw	r24, r14
    129c:	b6 01       	movw	r22, r12
    129e:	60 d4       	rcall	.+2240   	; 0x1b60 <sin>
    12a0:	6b 01       	movw	r12, r22
    12a2:	7c 01       	movw	r14, r24
    12a4:	29 81       	ldd	r18, Y+1	; 0x01
    12a6:	3a 81       	ldd	r19, Y+2	; 0x02
    12a8:	4b 81       	ldd	r20, Y+3	; 0x03
    12aa:	5c 81       	ldd	r21, Y+4	; 0x04
    12ac:	c3 01       	movw	r24, r6
    12ae:	b2 01       	movw	r22, r4
    12b0:	ec d3       	rcall	.+2008   	; 0x1a8a <__mulsf3>
    12b2:	6d 83       	std	Y+5, r22	; 0x05
    12b4:	7e 83       	std	Y+6, r23	; 0x06
    12b6:	8f 83       	std	Y+7, r24	; 0x07
    12b8:	98 87       	std	Y+8, r25	; 0x08
    12ba:	a7 01       	movw	r20, r14
    12bc:	96 01       	movw	r18, r12
    12be:	69 85       	ldd	r22, Y+9	; 0x09
    12c0:	7a 85       	ldd	r23, Y+10	; 0x0a
    12c2:	8b 85       	ldd	r24, Y+11	; 0x0b
    12c4:	9c 85       	ldd	r25, Y+12	; 0x0c
    12c6:	e1 d3       	rcall	.+1986   	; 0x1a8a <__mulsf3>
    12c8:	9b 01       	movw	r18, r22
    12ca:	ac 01       	movw	r20, r24
    12cc:	6d 81       	ldd	r22, Y+5	; 0x05
    12ce:	7e 81       	ldd	r23, Y+6	; 0x06
    12d0:	8f 81       	ldd	r24, Y+7	; 0x07
    12d2:	98 85       	ldd	r25, Y+8	; 0x08
    12d4:	80 d2       	rcall	.+1280   	; 0x17d6 <__addsf3>
    12d6:	6d 83       	std	Y+5, r22	; 0x05
    12d8:	7e 83       	std	Y+6, r23	; 0x06
    12da:	8f 83       	std	Y+7, r24	; 0x07
    12dc:	98 87       	std	Y+8, r25	; 0x08
    12de:	d8 01       	movw	r26, r16
    12e0:	14 96       	adiw	r26, 0x04	; 4
    12e2:	6d 93       	st	X+, r22
    12e4:	7d 93       	st	X+, r23
    12e6:	8d 93       	st	X+, r24
    12e8:	9c 93       	st	X, r25
    12ea:	17 97       	sbiw	r26, 0x07	; 7
		vector_B[2] = vector_A1[2] * cos(rotationMatrix[0]) - vector_A1[1] * sin(rotationMatrix[0]);
    12ec:	29 85       	ldd	r18, Y+9	; 0x09
    12ee:	3a 85       	ldd	r19, Y+10	; 0x0a
    12f0:	4b 85       	ldd	r20, Y+11	; 0x0b
    12f2:	5c 85       	ldd	r21, Y+12	; 0x0c
    12f4:	69 81       	ldd	r22, Y+1	; 0x01
    12f6:	7a 81       	ldd	r23, Y+2	; 0x02
    12f8:	8b 81       	ldd	r24, Y+3	; 0x03
    12fa:	9c 81       	ldd	r25, Y+4	; 0x04
    12fc:	c6 d3       	rcall	.+1932   	; 0x1a8a <__mulsf3>
    12fe:	69 83       	std	Y+1, r22	; 0x01
    1300:	7a 83       	std	Y+2, r23	; 0x02
    1302:	8b 83       	std	Y+3, r24	; 0x03
    1304:	9c 83       	std	Y+4, r25	; 0x04
    1306:	a7 01       	movw	r20, r14
    1308:	96 01       	movw	r18, r12
    130a:	c3 01       	movw	r24, r6
    130c:	b2 01       	movw	r22, r4
    130e:	bd d3       	rcall	.+1914   	; 0x1a8a <__mulsf3>
    1310:	9b 01       	movw	r18, r22
    1312:	ac 01       	movw	r20, r24
    1314:	69 81       	ldd	r22, Y+1	; 0x01
    1316:	7a 81       	ldd	r23, Y+2	; 0x02
    1318:	8b 81       	ldd	r24, Y+3	; 0x03
    131a:	9c 81       	ldd	r25, Y+4	; 0x04
    131c:	5b d2       	rcall	.+1206   	; 0x17d4 <__subsf3>
    131e:	6b 01       	movw	r12, r22
    1320:	7c 01       	movw	r14, r24
    1322:	f8 01       	movw	r30, r16
    1324:	60 87       	std	Z+8, r22	; 0x08
    1326:	71 87       	std	Z+9, r23	; 0x09
    1328:	82 87       	std	Z+10, r24	; 0x0a
    132a:	93 87       	std	Z+11, r25	; 0x0b
		
		//Perform rotation of angle rotationMatrix[1] on vector_B. Save to vector_C
		vector_C[0] = vector_B[0] * cos(rotationMatrix[1]) + vector_B[2] * sin(rotationMatrix[1]);
    132c:	40 90 cc 01 	lds	r4, 0x01CC	; 0x8001cc <__data_end+0x4>
    1330:	50 90 cd 01 	lds	r5, 0x01CD	; 0x8001cd <__data_end+0x5>
    1334:	60 90 ce 01 	lds	r6, 0x01CE	; 0x8001ce <__data_end+0x6>
    1338:	70 90 cf 01 	lds	r7, 0x01CF	; 0x8001cf <__data_end+0x7>
    133c:	c3 01       	movw	r24, r6
    133e:	b2 01       	movw	r22, r4
    1340:	ae d2       	rcall	.+1372   	; 0x189e <cos>
    1342:	69 83       	std	Y+1, r22	; 0x01
    1344:	7a 83       	std	Y+2, r23	; 0x02
    1346:	8b 83       	std	Y+3, r24	; 0x03
    1348:	9c 83       	std	Y+4, r25	; 0x04
    134a:	c3 01       	movw	r24, r6
    134c:	b2 01       	movw	r22, r4
    134e:	08 d4       	rcall	.+2064   	; 0x1b60 <sin>
    1350:	69 87       	std	Y+9, r22	; 0x09
    1352:	7a 87       	std	Y+10, r23	; 0x0a
    1354:	8b 87       	std	Y+11, r24	; 0x0b
    1356:	9c 87       	std	Y+12, r25	; 0x0c
    1358:	29 81       	ldd	r18, Y+1	; 0x01
    135a:	3a 81       	ldd	r19, Y+2	; 0x02
    135c:	4b 81       	ldd	r20, Y+3	; 0x03
    135e:	5c 81       	ldd	r21, Y+4	; 0x04
    1360:	c5 01       	movw	r24, r10
    1362:	b4 01       	movw	r22, r8
    1364:	92 d3       	rcall	.+1828   	; 0x1a8a <__mulsf3>
    1366:	2b 01       	movw	r4, r22
    1368:	3c 01       	movw	r6, r24
    136a:	29 85       	ldd	r18, Y+9	; 0x09
    136c:	3a 85       	ldd	r19, Y+10	; 0x0a
    136e:	4b 85       	ldd	r20, Y+11	; 0x0b
    1370:	5c 85       	ldd	r21, Y+12	; 0x0c
    1372:	c7 01       	movw	r24, r14
    1374:	b6 01       	movw	r22, r12
    1376:	89 d3       	rcall	.+1810   	; 0x1a8a <__mulsf3>
    1378:	9b 01       	movw	r18, r22
    137a:	ac 01       	movw	r20, r24
    137c:	c3 01       	movw	r24, r6
    137e:	b2 01       	movw	r22, r4
    1380:	2a d2       	rcall	.+1108   	; 0x17d6 <__addsf3>
    1382:	2b 01       	movw	r4, r22
    1384:	3c 01       	movw	r6, r24
    1386:	d1 01       	movw	r26, r2
    1388:	6d 93       	st	X+, r22
    138a:	7d 93       	st	X+, r23
    138c:	8d 93       	st	X+, r24
    138e:	9c 93       	st	X, r25
    1390:	13 97       	sbiw	r26, 0x03	; 3
		vector_C[1] = vector_B[1];
    1392:	8d 81       	ldd	r24, Y+5	; 0x05
    1394:	9e 81       	ldd	r25, Y+6	; 0x06
    1396:	af 81       	ldd	r26, Y+7	; 0x07
    1398:	b8 85       	ldd	r27, Y+8	; 0x08
    139a:	f1 01       	movw	r30, r2
    139c:	84 83       	std	Z+4, r24	; 0x04
    139e:	95 83       	std	Z+5, r25	; 0x05
    13a0:	a6 83       	std	Z+6, r26	; 0x06
    13a2:	b7 83       	std	Z+7, r27	; 0x07
		vector_C[2] = vector_B[2] * cos(rotationMatrix[1]) - vector_B[0] * sin(rotationMatrix[1]);
    13a4:	29 81       	ldd	r18, Y+1	; 0x01
    13a6:	3a 81       	ldd	r19, Y+2	; 0x02
    13a8:	4b 81       	ldd	r20, Y+3	; 0x03
    13aa:	5c 81       	ldd	r21, Y+4	; 0x04
    13ac:	c7 01       	movw	r24, r14
    13ae:	b6 01       	movw	r22, r12
    13b0:	6c d3       	rcall	.+1752   	; 0x1a8a <__mulsf3>
    13b2:	6b 01       	movw	r12, r22
    13b4:	7c 01       	movw	r14, r24
    13b6:	29 85       	ldd	r18, Y+9	; 0x09
    13b8:	3a 85       	ldd	r19, Y+10	; 0x0a
    13ba:	4b 85       	ldd	r20, Y+11	; 0x0b
    13bc:	5c 85       	ldd	r21, Y+12	; 0x0c
    13be:	c5 01       	movw	r24, r10
    13c0:	b4 01       	movw	r22, r8
    13c2:	63 d3       	rcall	.+1734   	; 0x1a8a <__mulsf3>
    13c4:	9b 01       	movw	r18, r22
    13c6:	ac 01       	movw	r20, r24
    13c8:	c7 01       	movw	r24, r14
    13ca:	b6 01       	movw	r22, r12
    13cc:	03 d2       	rcall	.+1030   	; 0x17d4 <__subsf3>
    13ce:	4b 01       	movw	r8, r22
    13d0:	5c 01       	movw	r10, r24
    13d2:	d1 01       	movw	r26, r2
    13d4:	18 96       	adiw	r26, 0x08	; 8
    13d6:	6d 93       	st	X+, r22
    13d8:	7d 93       	st	X+, r23
    13da:	8d 93       	st	X+, r24
    13dc:	9c 93       	st	X, r25
    13de:	1b 97       	sbiw	r26, 0x0b	; 11
		
		//Perform rotation of angle rotationMatrix[3] on vector_C. Save to vector_D
		vector_D[0] = vector_C[0] * cos(rotationMatrix[2]) + vector_C[1] * sin(rotationMatrix[2]);
    13e0:	c0 90 d0 01 	lds	r12, 0x01D0	; 0x8001d0 <__data_end+0x8>
    13e4:	d0 90 d1 01 	lds	r13, 0x01D1	; 0x8001d1 <__data_end+0x9>
    13e8:	e0 90 d2 01 	lds	r14, 0x01D2	; 0x8001d2 <__data_end+0xa>
    13ec:	f0 90 d3 01 	lds	r15, 0x01D3	; 0x8001d3 <__data_end+0xb>
    13f0:	c7 01       	movw	r24, r14
    13f2:	b6 01       	movw	r22, r12
    13f4:	54 d2       	rcall	.+1192   	; 0x189e <cos>
    13f6:	69 83       	std	Y+1, r22	; 0x01
    13f8:	7a 83       	std	Y+2, r23	; 0x02
    13fa:	8b 83       	std	Y+3, r24	; 0x03
    13fc:	9c 83       	std	Y+4, r25	; 0x04
    13fe:	c7 01       	movw	r24, r14
    1400:	b6 01       	movw	r22, r12
    1402:	ae d3       	rcall	.+1884   	; 0x1b60 <sin>
    1404:	69 87       	std	Y+9, r22	; 0x09
    1406:	7a 87       	std	Y+10, r23	; 0x0a
    1408:	8b 87       	std	Y+11, r24	; 0x0b
    140a:	9c 87       	std	Y+12, r25	; 0x0c
    140c:	29 81       	ldd	r18, Y+1	; 0x01
    140e:	3a 81       	ldd	r19, Y+2	; 0x02
    1410:	4b 81       	ldd	r20, Y+3	; 0x03
    1412:	5c 81       	ldd	r21, Y+4	; 0x04
    1414:	c3 01       	movw	r24, r6
    1416:	b2 01       	movw	r22, r4
    1418:	38 d3       	rcall	.+1648   	; 0x1a8a <__mulsf3>
    141a:	6b 01       	movw	r12, r22
    141c:	7c 01       	movw	r14, r24
    141e:	29 85       	ldd	r18, Y+9	; 0x09
    1420:	3a 85       	ldd	r19, Y+10	; 0x0a
    1422:	4b 85       	ldd	r20, Y+11	; 0x0b
    1424:	5c 85       	ldd	r21, Y+12	; 0x0c
    1426:	6d 81       	ldd	r22, Y+5	; 0x05
    1428:	7e 81       	ldd	r23, Y+6	; 0x06
    142a:	8f 81       	ldd	r24, Y+7	; 0x07
    142c:	98 85       	ldd	r25, Y+8	; 0x08
    142e:	2d d3       	rcall	.+1626   	; 0x1a8a <__mulsf3>
    1430:	9b 01       	movw	r18, r22
    1432:	ac 01       	movw	r20, r24
    1434:	c7 01       	movw	r24, r14
    1436:	b6 01       	movw	r22, r12
    1438:	ce d1       	rcall	.+924    	; 0x17d6 <__addsf3>
    143a:	6b 01       	movw	r12, r22
    143c:	7c 01       	movw	r14, r24
    143e:	e4 ed       	ldi	r30, 0xD4	; 212
    1440:	f1 e0       	ldi	r31, 0x01	; 1
    1442:	60 83       	st	Z, r22
    1444:	71 83       	std	Z+1, r23	; 0x01
    1446:	82 83       	std	Z+2, r24	; 0x02
    1448:	93 83       	std	Z+3, r25	; 0x03
		vector_D[1] = vector_C[1] * cos(rotationMatrix[2]) - vector_C[0] * sin(rotationMatrix[2]);
    144a:	29 81       	ldd	r18, Y+1	; 0x01
    144c:	3a 81       	ldd	r19, Y+2	; 0x02
    144e:	4b 81       	ldd	r20, Y+3	; 0x03
    1450:	5c 81       	ldd	r21, Y+4	; 0x04
    1452:	6d 81       	ldd	r22, Y+5	; 0x05
    1454:	7e 81       	ldd	r23, Y+6	; 0x06
    1456:	8f 81       	ldd	r24, Y+7	; 0x07
    1458:	98 85       	ldd	r25, Y+8	; 0x08
    145a:	17 d3       	rcall	.+1582   	; 0x1a8a <__mulsf3>
    145c:	6d 83       	std	Y+5, r22	; 0x05
    145e:	7e 83       	std	Y+6, r23	; 0x06
    1460:	8f 83       	std	Y+7, r24	; 0x07
    1462:	98 87       	std	Y+8, r25	; 0x08
    1464:	29 85       	ldd	r18, Y+9	; 0x09
    1466:	3a 85       	ldd	r19, Y+10	; 0x0a
    1468:	4b 85       	ldd	r20, Y+11	; 0x0b
    146a:	5c 85       	ldd	r21, Y+12	; 0x0c
    146c:	c3 01       	movw	r24, r6
    146e:	b2 01       	movw	r22, r4
    1470:	0c d3       	rcall	.+1560   	; 0x1a8a <__mulsf3>
    1472:	9b 01       	movw	r18, r22
    1474:	ac 01       	movw	r20, r24
    1476:	6d 81       	ldd	r22, Y+5	; 0x05
    1478:	7e 81       	ldd	r23, Y+6	; 0x06
    147a:	8f 81       	ldd	r24, Y+7	; 0x07
    147c:	98 85       	ldd	r25, Y+8	; 0x08
    147e:	aa d1       	rcall	.+852    	; 0x17d4 <__subsf3>
    1480:	60 93 d8 01 	sts	0x01D8, r22	; 0x8001d8 <vector_D+0x4>
    1484:	70 93 d9 01 	sts	0x01D9, r23	; 0x8001d9 <vector_D+0x5>
    1488:	80 93 da 01 	sts	0x01DA, r24	; 0x8001da <vector_D+0x6>
    148c:	90 93 db 01 	sts	0x01DB, r25	; 0x8001db <vector_D+0x7>
		vector_D[2] = vector_C[2];
    1490:	80 92 dc 01 	sts	0x01DC, r8	; 0x8001dc <vector_D+0x8>
    1494:	90 92 dd 01 	sts	0x01DD, r9	; 0x8001dd <vector_D+0x9>
    1498:	a0 92 de 01 	sts	0x01DE, r10	; 0x8001de <vector_D+0xa>
    149c:	b0 92 df 01 	sts	0x01DF, r11	; 0x8001df <vector_D+0xb>
		OLED_DisplayPixel_SET(uint8_t(vector_D[0]+64),uint8_t(vector_D[1]+32));
    14a0:	20 e0       	ldi	r18, 0x00	; 0
    14a2:	30 e0       	ldi	r19, 0x00	; 0
    14a4:	40 e0       	ldi	r20, 0x00	; 0
    14a6:	52 e4       	ldi	r21, 0x42	; 66
    14a8:	96 d1       	rcall	.+812    	; 0x17d6 <__addsf3>
    14aa:	fc d1       	rcall	.+1016   	; 0x18a4 <__fixunssfsi>
    14ac:	b6 2e       	mov	r11, r22
    14ae:	20 e0       	ldi	r18, 0x00	; 0
    14b0:	30 e0       	ldi	r19, 0x00	; 0
    14b2:	40 e8       	ldi	r20, 0x80	; 128
    14b4:	52 e4       	ldi	r21, 0x42	; 66
    14b6:	c7 01       	movw	r24, r14
    14b8:	b6 01       	movw	r22, r12
    14ba:	8d d1       	rcall	.+794    	; 0x17d6 <__addsf3>
    14bc:	f3 d1       	rcall	.+998    	; 0x18a4 <__fixunssfsi>
    14be:	86 2f       	mov	r24, r22
    14c0:	6b 2d       	mov	r22, r11
    14c2:	0e d7       	rcall	.+3612   	; 0x22e0 <__TEXT_REGION_LENGTH__+0x2e0>
		
		//Perform rotation of angle rotationMatrix[0] on vector_A. Save to vector_B
		vector_B[0] = vector_A[0];
    14c4:	a4 e8       	ldi	r26, 0x84	; 132
    14c6:	b0 e0       	ldi	r27, 0x00	; 0
    14c8:	8d 90       	ld	r8, X+
    14ca:	9d 90       	ld	r9, X+
    14cc:	ad 90       	ld	r10, X+
    14ce:	bc 90       	ld	r11, X
    14d0:	f8 01       	movw	r30, r16
    14d2:	80 82       	st	Z, r8
    14d4:	91 82       	std	Z+1, r9	; 0x01
    14d6:	a2 82       	std	Z+2, r10	; 0x02
    14d8:	b3 82       	std	Z+3, r11	; 0x03
		vector_B[1] = vector_A[1] * cos(rotationMatrix[0]) + vector_A[2] * sin(rotationMatrix[0]);
    14da:	40 90 88 00 	lds	r4, 0x0088	; 0x800088 <vector_A+0x4>
    14de:	50 90 89 00 	lds	r5, 0x0089	; 0x800089 <vector_A+0x5>
    14e2:	60 90 8a 00 	lds	r6, 0x008A	; 0x80008a <vector_A+0x6>
    14e6:	70 90 8b 00 	lds	r7, 0x008B	; 0x80008b <vector_A+0x7>
    14ea:	a8 ec       	ldi	r26, 0xC8	; 200
    14ec:	b1 e0       	ldi	r27, 0x01	; 1
    14ee:	cd 90       	ld	r12, X+
    14f0:	dd 90       	ld	r13, X+
    14f2:	ed 90       	ld	r14, X+
    14f4:	fc 90       	ld	r15, X
    14f6:	c7 01       	movw	r24, r14
    14f8:	b6 01       	movw	r22, r12
    14fa:	d1 d1       	rcall	.+930    	; 0x189e <cos>
    14fc:	69 83       	std	Y+1, r22	; 0x01
    14fe:	7a 83       	std	Y+2, r23	; 0x02
    1500:	8b 83       	std	Y+3, r24	; 0x03
    1502:	9c 83       	std	Y+4, r25	; 0x04
    1504:	80 91 8c 00 	lds	r24, 0x008C	; 0x80008c <vector_A+0x8>
    1508:	90 91 8d 00 	lds	r25, 0x008D	; 0x80008d <vector_A+0x9>
    150c:	a0 91 8e 00 	lds	r26, 0x008E	; 0x80008e <vector_A+0xa>
    1510:	b0 91 8f 00 	lds	r27, 0x008F	; 0x80008f <vector_A+0xb>
    1514:	89 87       	std	Y+9, r24	; 0x09
    1516:	9a 87       	std	Y+10, r25	; 0x0a
    1518:	ab 87       	std	Y+11, r26	; 0x0b
    151a:	bc 87       	std	Y+12, r27	; 0x0c
    151c:	c7 01       	movw	r24, r14
    151e:	b6 01       	movw	r22, r12
    1520:	1f d3       	rcall	.+1598   	; 0x1b60 <sin>
    1522:	6b 01       	movw	r12, r22
    1524:	7c 01       	movw	r14, r24
    1526:	29 81       	ldd	r18, Y+1	; 0x01
    1528:	3a 81       	ldd	r19, Y+2	; 0x02
    152a:	4b 81       	ldd	r20, Y+3	; 0x03
    152c:	5c 81       	ldd	r21, Y+4	; 0x04
    152e:	c3 01       	movw	r24, r6
    1530:	b2 01       	movw	r22, r4
    1532:	ab d2       	rcall	.+1366   	; 0x1a8a <__mulsf3>
    1534:	6d 83       	std	Y+5, r22	; 0x05
    1536:	7e 83       	std	Y+6, r23	; 0x06
    1538:	8f 83       	std	Y+7, r24	; 0x07
    153a:	98 87       	std	Y+8, r25	; 0x08
    153c:	a7 01       	movw	r20, r14
    153e:	96 01       	movw	r18, r12
    1540:	69 85       	ldd	r22, Y+9	; 0x09
    1542:	7a 85       	ldd	r23, Y+10	; 0x0a
    1544:	8b 85       	ldd	r24, Y+11	; 0x0b
    1546:	9c 85       	ldd	r25, Y+12	; 0x0c
    1548:	a0 d2       	rcall	.+1344   	; 0x1a8a <__mulsf3>
    154a:	9b 01       	movw	r18, r22
    154c:	ac 01       	movw	r20, r24
    154e:	6d 81       	ldd	r22, Y+5	; 0x05
    1550:	7e 81       	ldd	r23, Y+6	; 0x06
    1552:	8f 81       	ldd	r24, Y+7	; 0x07
    1554:	98 85       	ldd	r25, Y+8	; 0x08
    1556:	3f d1       	rcall	.+638    	; 0x17d6 <__addsf3>
    1558:	6d 83       	std	Y+5, r22	; 0x05
    155a:	7e 83       	std	Y+6, r23	; 0x06
    155c:	8f 83       	std	Y+7, r24	; 0x07
    155e:	98 87       	std	Y+8, r25	; 0x08
    1560:	d8 01       	movw	r26, r16
    1562:	14 96       	adiw	r26, 0x04	; 4
    1564:	6d 93       	st	X+, r22
    1566:	7d 93       	st	X+, r23
    1568:	8d 93       	st	X+, r24
    156a:	9c 93       	st	X, r25
    156c:	17 97       	sbiw	r26, 0x07	; 7
		vector_B[2] = vector_A[2] * cos(rotationMatrix[0]) - vector_A[1] * sin(rotationMatrix[0]);
    156e:	29 85       	ldd	r18, Y+9	; 0x09
    1570:	3a 85       	ldd	r19, Y+10	; 0x0a
    1572:	4b 85       	ldd	r20, Y+11	; 0x0b
    1574:	5c 85       	ldd	r21, Y+12	; 0x0c
    1576:	69 81       	ldd	r22, Y+1	; 0x01
    1578:	7a 81       	ldd	r23, Y+2	; 0x02
    157a:	8b 81       	ldd	r24, Y+3	; 0x03
    157c:	9c 81       	ldd	r25, Y+4	; 0x04
    157e:	85 d2       	rcall	.+1290   	; 0x1a8a <__mulsf3>
    1580:	69 83       	std	Y+1, r22	; 0x01
    1582:	7a 83       	std	Y+2, r23	; 0x02
    1584:	8b 83       	std	Y+3, r24	; 0x03
    1586:	9c 83       	std	Y+4, r25	; 0x04
    1588:	a7 01       	movw	r20, r14
    158a:	96 01       	movw	r18, r12
    158c:	c3 01       	movw	r24, r6
    158e:	b2 01       	movw	r22, r4
    1590:	7c d2       	rcall	.+1272   	; 0x1a8a <__mulsf3>
    1592:	9b 01       	movw	r18, r22
    1594:	ac 01       	movw	r20, r24
    1596:	69 81       	ldd	r22, Y+1	; 0x01
    1598:	7a 81       	ldd	r23, Y+2	; 0x02
    159a:	8b 81       	ldd	r24, Y+3	; 0x03
    159c:	9c 81       	ldd	r25, Y+4	; 0x04
    159e:	1a d1       	rcall	.+564    	; 0x17d4 <__subsf3>
    15a0:	6b 01       	movw	r12, r22
    15a2:	7c 01       	movw	r14, r24
    15a4:	f8 01       	movw	r30, r16
    15a6:	60 87       	std	Z+8, r22	; 0x08
    15a8:	71 87       	std	Z+9, r23	; 0x09
    15aa:	82 87       	std	Z+10, r24	; 0x0a
    15ac:	93 87       	std	Z+11, r25	; 0x0b
		
		//Perform rotation of angle rotationMatrix[1] on vector_B. Save to vector_C
		vector_C[0] = vector_B[0] * cos(rotationMatrix[1]) + vector_B[2] * sin(rotationMatrix[1]);
    15ae:	40 90 cc 01 	lds	r4, 0x01CC	; 0x8001cc <__data_end+0x4>
    15b2:	50 90 cd 01 	lds	r5, 0x01CD	; 0x8001cd <__data_end+0x5>
    15b6:	60 90 ce 01 	lds	r6, 0x01CE	; 0x8001ce <__data_end+0x6>
    15ba:	70 90 cf 01 	lds	r7, 0x01CF	; 0x8001cf <__data_end+0x7>
    15be:	c3 01       	movw	r24, r6
    15c0:	b2 01       	movw	r22, r4
    15c2:	6d d1       	rcall	.+730    	; 0x189e <cos>
    15c4:	69 83       	std	Y+1, r22	; 0x01
    15c6:	7a 83       	std	Y+2, r23	; 0x02
    15c8:	8b 83       	std	Y+3, r24	; 0x03
    15ca:	9c 83       	std	Y+4, r25	; 0x04
    15cc:	c3 01       	movw	r24, r6
    15ce:	b2 01       	movw	r22, r4
    15d0:	c7 d2       	rcall	.+1422   	; 0x1b60 <sin>
    15d2:	69 87       	std	Y+9, r22	; 0x09
    15d4:	7a 87       	std	Y+10, r23	; 0x0a
    15d6:	8b 87       	std	Y+11, r24	; 0x0b
    15d8:	9c 87       	std	Y+12, r25	; 0x0c
    15da:	29 81       	ldd	r18, Y+1	; 0x01
    15dc:	3a 81       	ldd	r19, Y+2	; 0x02
    15de:	4b 81       	ldd	r20, Y+3	; 0x03
    15e0:	5c 81       	ldd	r21, Y+4	; 0x04
    15e2:	c5 01       	movw	r24, r10
    15e4:	b4 01       	movw	r22, r8
    15e6:	51 d2       	rcall	.+1186   	; 0x1a8a <__mulsf3>
    15e8:	2b 01       	movw	r4, r22
    15ea:	3c 01       	movw	r6, r24
    15ec:	29 85       	ldd	r18, Y+9	; 0x09
    15ee:	3a 85       	ldd	r19, Y+10	; 0x0a
    15f0:	4b 85       	ldd	r20, Y+11	; 0x0b
    15f2:	5c 85       	ldd	r21, Y+12	; 0x0c
    15f4:	c7 01       	movw	r24, r14
    15f6:	b6 01       	movw	r22, r12
    15f8:	48 d2       	rcall	.+1168   	; 0x1a8a <__mulsf3>
    15fa:	9b 01       	movw	r18, r22
    15fc:	ac 01       	movw	r20, r24
    15fe:	c3 01       	movw	r24, r6
    1600:	b2 01       	movw	r22, r4
    1602:	e9 d0       	rcall	.+466    	; 0x17d6 <__addsf3>
    1604:	2b 01       	movw	r4, r22
    1606:	3c 01       	movw	r6, r24
    1608:	d1 01       	movw	r26, r2
    160a:	6d 93       	st	X+, r22
    160c:	7d 93       	st	X+, r23
    160e:	8d 93       	st	X+, r24
    1610:	9c 93       	st	X, r25
    1612:	13 97       	sbiw	r26, 0x03	; 3
		vector_C[1] = vector_B[1];
    1614:	8d 81       	ldd	r24, Y+5	; 0x05
    1616:	9e 81       	ldd	r25, Y+6	; 0x06
    1618:	af 81       	ldd	r26, Y+7	; 0x07
    161a:	b8 85       	ldd	r27, Y+8	; 0x08
    161c:	f1 01       	movw	r30, r2
    161e:	84 83       	std	Z+4, r24	; 0x04
    1620:	95 83       	std	Z+5, r25	; 0x05
    1622:	a6 83       	std	Z+6, r26	; 0x06
    1624:	b7 83       	std	Z+7, r27	; 0x07
		vector_C[2] = vector_B[2] * cos(rotationMatrix[1]) - vector_B[0] * sin(rotationMatrix[1]);
    1626:	29 81       	ldd	r18, Y+1	; 0x01
    1628:	3a 81       	ldd	r19, Y+2	; 0x02
    162a:	4b 81       	ldd	r20, Y+3	; 0x03
    162c:	5c 81       	ldd	r21, Y+4	; 0x04
    162e:	c7 01       	movw	r24, r14
    1630:	b6 01       	movw	r22, r12
    1632:	2b d2       	rcall	.+1110   	; 0x1a8a <__mulsf3>
    1634:	6b 01       	movw	r12, r22
    1636:	7c 01       	movw	r14, r24
    1638:	29 85       	ldd	r18, Y+9	; 0x09
    163a:	3a 85       	ldd	r19, Y+10	; 0x0a
    163c:	4b 85       	ldd	r20, Y+11	; 0x0b
    163e:	5c 85       	ldd	r21, Y+12	; 0x0c
    1640:	c5 01       	movw	r24, r10
    1642:	b4 01       	movw	r22, r8
    1644:	22 d2       	rcall	.+1092   	; 0x1a8a <__mulsf3>
    1646:	9b 01       	movw	r18, r22
    1648:	ac 01       	movw	r20, r24
    164a:	c7 01       	movw	r24, r14
    164c:	b6 01       	movw	r22, r12
    164e:	c2 d0       	rcall	.+388    	; 0x17d4 <__subsf3>
    1650:	4b 01       	movw	r8, r22
    1652:	5c 01       	movw	r10, r24
    1654:	d1 01       	movw	r26, r2
    1656:	18 96       	adiw	r26, 0x08	; 8
    1658:	6d 93       	st	X+, r22
    165a:	7d 93       	st	X+, r23
    165c:	8d 93       	st	X+, r24
    165e:	9c 93       	st	X, r25
    1660:	1b 97       	sbiw	r26, 0x0b	; 11
		
		//Perform rotation of angle rotationMatrix[3] on vector_C. Save to vector_D
		vector_D[0] = vector_C[0] * cos(rotationMatrix[2]) + vector_C[1] * sin(rotationMatrix[2]);
    1662:	c0 90 d0 01 	lds	r12, 0x01D0	; 0x8001d0 <__data_end+0x8>
    1666:	d0 90 d1 01 	lds	r13, 0x01D1	; 0x8001d1 <__data_end+0x9>
    166a:	e0 90 d2 01 	lds	r14, 0x01D2	; 0x8001d2 <__data_end+0xa>
    166e:	f0 90 d3 01 	lds	r15, 0x01D3	; 0x8001d3 <__data_end+0xb>
    1672:	c7 01       	movw	r24, r14
    1674:	b6 01       	movw	r22, r12
    1676:	13 d1       	rcall	.+550    	; 0x189e <cos>
    1678:	69 83       	std	Y+1, r22	; 0x01
    167a:	7a 83       	std	Y+2, r23	; 0x02
    167c:	8b 83       	std	Y+3, r24	; 0x03
    167e:	9c 83       	std	Y+4, r25	; 0x04
    1680:	c7 01       	movw	r24, r14
    1682:	b6 01       	movw	r22, r12
    1684:	6d d2       	rcall	.+1242   	; 0x1b60 <sin>
    1686:	69 87       	std	Y+9, r22	; 0x09
    1688:	7a 87       	std	Y+10, r23	; 0x0a
    168a:	8b 87       	std	Y+11, r24	; 0x0b
    168c:	9c 87       	std	Y+12, r25	; 0x0c
    168e:	29 81       	ldd	r18, Y+1	; 0x01
    1690:	3a 81       	ldd	r19, Y+2	; 0x02
    1692:	4b 81       	ldd	r20, Y+3	; 0x03
    1694:	5c 81       	ldd	r21, Y+4	; 0x04
    1696:	c3 01       	movw	r24, r6
    1698:	b2 01       	movw	r22, r4
    169a:	f7 d1       	rcall	.+1006   	; 0x1a8a <__mulsf3>
    169c:	6b 01       	movw	r12, r22
    169e:	7c 01       	movw	r14, r24
    16a0:	29 85       	ldd	r18, Y+9	; 0x09
    16a2:	3a 85       	ldd	r19, Y+10	; 0x0a
    16a4:	4b 85       	ldd	r20, Y+11	; 0x0b
    16a6:	5c 85       	ldd	r21, Y+12	; 0x0c
    16a8:	6d 81       	ldd	r22, Y+5	; 0x05
    16aa:	7e 81       	ldd	r23, Y+6	; 0x06
    16ac:	8f 81       	ldd	r24, Y+7	; 0x07
    16ae:	98 85       	ldd	r25, Y+8	; 0x08
    16b0:	ec d1       	rcall	.+984    	; 0x1a8a <__mulsf3>
    16b2:	9b 01       	movw	r18, r22
    16b4:	ac 01       	movw	r20, r24
    16b6:	c7 01       	movw	r24, r14
    16b8:	b6 01       	movw	r22, r12
    16ba:	8d d0       	rcall	.+282    	; 0x17d6 <__addsf3>
    16bc:	6b 01       	movw	r12, r22
    16be:	7c 01       	movw	r14, r24
    16c0:	e4 ed       	ldi	r30, 0xD4	; 212
    16c2:	f1 e0       	ldi	r31, 0x01	; 1
    16c4:	60 83       	st	Z, r22
    16c6:	71 83       	std	Z+1, r23	; 0x01
    16c8:	82 83       	std	Z+2, r24	; 0x02
    16ca:	93 83       	std	Z+3, r25	; 0x03
		vector_D[1] = vector_C[1] * cos(rotationMatrix[2]) - vector_C[0] * sin(rotationMatrix[2]);
    16cc:	29 81       	ldd	r18, Y+1	; 0x01
    16ce:	3a 81       	ldd	r19, Y+2	; 0x02
    16d0:	4b 81       	ldd	r20, Y+3	; 0x03
    16d2:	5c 81       	ldd	r21, Y+4	; 0x04
    16d4:	6d 81       	ldd	r22, Y+5	; 0x05
    16d6:	7e 81       	ldd	r23, Y+6	; 0x06
    16d8:	8f 81       	ldd	r24, Y+7	; 0x07
    16da:	98 85       	ldd	r25, Y+8	; 0x08
    16dc:	d6 d1       	rcall	.+940    	; 0x1a8a <__mulsf3>
    16de:	6d 83       	std	Y+5, r22	; 0x05
    16e0:	7e 83       	std	Y+6, r23	; 0x06
    16e2:	8f 83       	std	Y+7, r24	; 0x07
    16e4:	98 87       	std	Y+8, r25	; 0x08
    16e6:	29 85       	ldd	r18, Y+9	; 0x09
    16e8:	3a 85       	ldd	r19, Y+10	; 0x0a
    16ea:	4b 85       	ldd	r20, Y+11	; 0x0b
    16ec:	5c 85       	ldd	r21, Y+12	; 0x0c
    16ee:	c3 01       	movw	r24, r6
    16f0:	b2 01       	movw	r22, r4
    16f2:	cb d1       	rcall	.+918    	; 0x1a8a <__mulsf3>
    16f4:	9b 01       	movw	r18, r22
    16f6:	ac 01       	movw	r20, r24
    16f8:	6d 81       	ldd	r22, Y+5	; 0x05
    16fa:	7e 81       	ldd	r23, Y+6	; 0x06
    16fc:	8f 81       	ldd	r24, Y+7	; 0x07
    16fe:	98 85       	ldd	r25, Y+8	; 0x08
    1700:	69 d0       	rcall	.+210    	; 0x17d4 <__subsf3>
    1702:	60 93 d8 01 	sts	0x01D8, r22	; 0x8001d8 <vector_D+0x4>
    1706:	70 93 d9 01 	sts	0x01D9, r23	; 0x8001d9 <vector_D+0x5>
    170a:	80 93 da 01 	sts	0x01DA, r24	; 0x8001da <vector_D+0x6>
    170e:	90 93 db 01 	sts	0x01DB, r25	; 0x8001db <vector_D+0x7>
		vector_D[2] = vector_C[2];
    1712:	80 92 dc 01 	sts	0x01DC, r8	; 0x8001dc <vector_D+0x8>
    1716:	90 92 dd 01 	sts	0x01DD, r9	; 0x8001dd <vector_D+0x9>
    171a:	a0 92 de 01 	sts	0x01DE, r10	; 0x8001de <vector_D+0xa>
    171e:	b0 92 df 01 	sts	0x01DF, r11	; 0x8001df <vector_D+0xb>
		OLED_DisplayPixel_SET(uint8_t(vector_D[0]+64),uint8_t(vector_D[1]+32));
    1722:	20 e0       	ldi	r18, 0x00	; 0
    1724:	30 e0       	ldi	r19, 0x00	; 0
    1726:	40 e0       	ldi	r20, 0x00	; 0
    1728:	52 e4       	ldi	r21, 0x42	; 66
    172a:	55 d0       	rcall	.+170    	; 0x17d6 <__addsf3>
    172c:	bb d0       	rcall	.+374    	; 0x18a4 <__fixunssfsi>
    172e:	b6 2e       	mov	r11, r22
    1730:	20 e0       	ldi	r18, 0x00	; 0
    1732:	30 e0       	ldi	r19, 0x00	; 0
    1734:	40 e8       	ldi	r20, 0x80	; 128
    1736:	52 e4       	ldi	r21, 0x42	; 66
    1738:	c7 01       	movw	r24, r14
    173a:	b6 01       	movw	r22, r12
    173c:	4c d0       	rcall	.+152    	; 0x17d6 <__addsf3>
    173e:	b2 d0       	rcall	.+356    	; 0x18a4 <__fixunssfsi>
    1740:	86 2f       	mov	r24, r22
    1742:	6b 2d       	mov	r22, r11
    1744:	cd d5       	rcall	.+2970   	; 0x22e0 <__TEXT_REGION_LENGTH__+0x2e0>
		
		//OLED_DisplayPixel_SET(uint8_t(vector_D[0]),uint8_t(vector_D[1]));
		update_display();
    1746:	ff d8       	rcall	.-3586   	; 0x946 <_Z14update_displayv>
	#else
		//round up by default
		__ticks_dc = (uint32_t)(ceil(fabs(__tmp)));
	#endif

	__builtin_avr_delay_cycles(__ticks_dc);
    1748:	ff ef       	ldi	r31, 0xFF	; 255
    174a:	21 ee       	ldi	r18, 0xE1	; 225
    174c:	84 e0       	ldi	r24, 0x04	; 4
    174e:	f1 50       	subi	r31, 0x01	; 1
    1750:	20 40       	sbci	r18, 0x00	; 0
    1752:	80 40       	sbci	r24, 0x00	; 0
    1754:	e1 f7       	brne	.-8      	; 0x174e <main+0xce0>
    1756:	00 c0       	rjmp	.+0      	; 0x1758 <main+0xcea>
    1758:	00 00       	nop
		_delay_ms(100);
		OLED_Clear();
    175a:	e4 d5       	rcall	.+3016   	; 0x2324 <__TEXT_REGION_LENGTH__+0x324>
		rotationMatrix[0] += 0.01;
    175c:	2a e0       	ldi	r18, 0x0A	; 10
    175e:	37 ed       	ldi	r19, 0xD7	; 215
    1760:	43 e2       	ldi	r20, 0x23	; 35
    1762:	5c e3       	ldi	r21, 0x3C	; 60
    1764:	a8 ec       	ldi	r26, 0xC8	; 200
    1766:	b1 e0       	ldi	r27, 0x01	; 1
    1768:	6d 91       	ld	r22, X+
    176a:	7d 91       	ld	r23, X+
    176c:	8d 91       	ld	r24, X+
    176e:	9c 91       	ld	r25, X
    1770:	32 d0       	rcall	.+100    	; 0x17d6 <__addsf3>
    1772:	e8 ec       	ldi	r30, 0xC8	; 200
    1774:	f1 e0       	ldi	r31, 0x01	; 1
    1776:	60 83       	st	Z, r22
    1778:	71 83       	std	Z+1, r23	; 0x01
    177a:	82 83       	std	Z+2, r24	; 0x02
    177c:	93 83       	std	Z+3, r25	; 0x03
		rotationMatrix[1] += 0.1;
    177e:	2d ec       	ldi	r18, 0xCD	; 205
    1780:	3c ec       	ldi	r19, 0xCC	; 204
    1782:	4c ec       	ldi	r20, 0xCC	; 204
    1784:	5d e3       	ldi	r21, 0x3D	; 61
    1786:	60 91 cc 01 	lds	r22, 0x01CC	; 0x8001cc <__data_end+0x4>
    178a:	70 91 cd 01 	lds	r23, 0x01CD	; 0x8001cd <__data_end+0x5>
    178e:	80 91 ce 01 	lds	r24, 0x01CE	; 0x8001ce <__data_end+0x6>
    1792:	90 91 cf 01 	lds	r25, 0x01CF	; 0x8001cf <__data_end+0x7>
    1796:	1f d0       	rcall	.+62     	; 0x17d6 <__addsf3>
    1798:	60 93 cc 01 	sts	0x01CC, r22	; 0x8001cc <__data_end+0x4>
    179c:	70 93 cd 01 	sts	0x01CD, r23	; 0x8001cd <__data_end+0x5>
    17a0:	80 93 ce 01 	sts	0x01CE, r24	; 0x8001ce <__data_end+0x6>
    17a4:	90 93 cf 01 	sts	0x01CF, r25	; 0x8001cf <__data_end+0x7>
		rotationMatrix[2] += 0.05;
    17a8:	2d ec       	ldi	r18, 0xCD	; 205
    17aa:	3c ec       	ldi	r19, 0xCC	; 204
    17ac:	4c e4       	ldi	r20, 0x4C	; 76
    17ae:	5d e3       	ldi	r21, 0x3D	; 61
    17b0:	60 91 d0 01 	lds	r22, 0x01D0	; 0x8001d0 <__data_end+0x8>
    17b4:	70 91 d1 01 	lds	r23, 0x01D1	; 0x8001d1 <__data_end+0x9>
    17b8:	80 91 d2 01 	lds	r24, 0x01D2	; 0x8001d2 <__data_end+0xa>
    17bc:	90 91 d3 01 	lds	r25, 0x01D3	; 0x8001d3 <__data_end+0xb>
    17c0:	0a d0       	rcall	.+20     	; 0x17d6 <__addsf3>
    17c2:	60 93 d0 01 	sts	0x01D0, r22	; 0x8001d0 <__data_end+0x8>
    17c6:	70 93 d1 01 	sts	0x01D1, r23	; 0x8001d1 <__data_end+0x9>
    17ca:	80 93 d2 01 	sts	0x01D2, r24	; 0x8001d2 <__data_end+0xa>
    17ce:	90 93 d3 01 	sts	0x01D3, r25	; 0x8001d3 <__data_end+0xb>
    17d2:	65 c9       	rjmp	.-3382   	; 0xa9e <main+0x30>

000017d4 <__subsf3>:
    17d4:	50 58       	subi	r21, 0x80	; 128

000017d6 <__addsf3>:
    17d6:	bb 27       	eor	r27, r27
    17d8:	aa 27       	eor	r26, r26
    17da:	0e d0       	rcall	.+28     	; 0x17f8 <__addsf3x>
    17dc:	0b c1       	rjmp	.+534    	; 0x19f4 <__fp_round>
    17de:	d4 d0       	rcall	.+424    	; 0x1988 <__fp_pscA>
    17e0:	30 f0       	brcs	.+12     	; 0x17ee <__addsf3+0x18>
    17e2:	d9 d0       	rcall	.+434    	; 0x1996 <__fp_pscB>
    17e4:	20 f0       	brcs	.+8      	; 0x17ee <__addsf3+0x18>
    17e6:	31 f4       	brne	.+12     	; 0x17f4 <__addsf3+0x1e>
    17e8:	9f 3f       	cpi	r25, 0xFF	; 255
    17ea:	11 f4       	brne	.+4      	; 0x17f0 <__addsf3+0x1a>
    17ec:	1e f4       	brtc	.+6      	; 0x17f4 <__addsf3+0x1e>
    17ee:	c9 c0       	rjmp	.+402    	; 0x1982 <__fp_nan>
    17f0:	0e f4       	brtc	.+2      	; 0x17f4 <__addsf3+0x1e>
    17f2:	e0 95       	com	r30
    17f4:	e7 fb       	bst	r30, 7
    17f6:	bf c0       	rjmp	.+382    	; 0x1976 <__fp_inf>

000017f8 <__addsf3x>:
    17f8:	e9 2f       	mov	r30, r25
    17fa:	1e d1       	rcall	.+572    	; 0x1a38 <__fp_split3>
    17fc:	80 f3       	brcs	.-32     	; 0x17de <__addsf3+0x8>
    17fe:	ba 17       	cp	r27, r26
    1800:	62 07       	cpc	r22, r18
    1802:	73 07       	cpc	r23, r19
    1804:	84 07       	cpc	r24, r20
    1806:	95 07       	cpc	r25, r21
    1808:	18 f0       	brcs	.+6      	; 0x1810 <__addsf3x+0x18>
    180a:	71 f4       	brne	.+28     	; 0x1828 <__addsf3x+0x30>
    180c:	9e f5       	brtc	.+102    	; 0x1874 <__addsf3x+0x7c>
    180e:	36 c1       	rjmp	.+620    	; 0x1a7c <__fp_zero>
    1810:	0e f4       	brtc	.+2      	; 0x1814 <__addsf3x+0x1c>
    1812:	e0 95       	com	r30
    1814:	0b 2e       	mov	r0, r27
    1816:	ba 2f       	mov	r27, r26
    1818:	a0 2d       	mov	r26, r0
    181a:	0b 01       	movw	r0, r22
    181c:	b9 01       	movw	r22, r18
    181e:	90 01       	movw	r18, r0
    1820:	0c 01       	movw	r0, r24
    1822:	ca 01       	movw	r24, r20
    1824:	a0 01       	movw	r20, r0
    1826:	11 24       	eor	r1, r1
    1828:	ff 27       	eor	r31, r31
    182a:	59 1b       	sub	r21, r25
    182c:	99 f0       	breq	.+38     	; 0x1854 <__addsf3x+0x5c>
    182e:	59 3f       	cpi	r21, 0xF9	; 249
    1830:	50 f4       	brcc	.+20     	; 0x1846 <__addsf3x+0x4e>
    1832:	50 3e       	cpi	r21, 0xE0	; 224
    1834:	68 f1       	brcs	.+90     	; 0x1890 <__addsf3x+0x98>
    1836:	1a 16       	cp	r1, r26
    1838:	f0 40       	sbci	r31, 0x00	; 0
    183a:	a2 2f       	mov	r26, r18
    183c:	23 2f       	mov	r18, r19
    183e:	34 2f       	mov	r19, r20
    1840:	44 27       	eor	r20, r20
    1842:	58 5f       	subi	r21, 0xF8	; 248
    1844:	f3 cf       	rjmp	.-26     	; 0x182c <__addsf3x+0x34>
    1846:	46 95       	lsr	r20
    1848:	37 95       	ror	r19
    184a:	27 95       	ror	r18
    184c:	a7 95       	ror	r26
    184e:	f0 40       	sbci	r31, 0x00	; 0
    1850:	53 95       	inc	r21
    1852:	c9 f7       	brne	.-14     	; 0x1846 <__addsf3x+0x4e>
    1854:	7e f4       	brtc	.+30     	; 0x1874 <__addsf3x+0x7c>
    1856:	1f 16       	cp	r1, r31
    1858:	ba 0b       	sbc	r27, r26
    185a:	62 0b       	sbc	r22, r18
    185c:	73 0b       	sbc	r23, r19
    185e:	84 0b       	sbc	r24, r20
    1860:	ba f0       	brmi	.+46     	; 0x1890 <__addsf3x+0x98>
    1862:	91 50       	subi	r25, 0x01	; 1
    1864:	a1 f0       	breq	.+40     	; 0x188e <__addsf3x+0x96>
    1866:	ff 0f       	add	r31, r31
    1868:	bb 1f       	adc	r27, r27
    186a:	66 1f       	adc	r22, r22
    186c:	77 1f       	adc	r23, r23
    186e:	88 1f       	adc	r24, r24
    1870:	c2 f7       	brpl	.-16     	; 0x1862 <__addsf3x+0x6a>
    1872:	0e c0       	rjmp	.+28     	; 0x1890 <__addsf3x+0x98>
    1874:	ba 0f       	add	r27, r26
    1876:	62 1f       	adc	r22, r18
    1878:	73 1f       	adc	r23, r19
    187a:	84 1f       	adc	r24, r20
    187c:	48 f4       	brcc	.+18     	; 0x1890 <__addsf3x+0x98>
    187e:	87 95       	ror	r24
    1880:	77 95       	ror	r23
    1882:	67 95       	ror	r22
    1884:	b7 95       	ror	r27
    1886:	f7 95       	ror	r31
    1888:	9e 3f       	cpi	r25, 0xFE	; 254
    188a:	08 f0       	brcs	.+2      	; 0x188e <__addsf3x+0x96>
    188c:	b3 cf       	rjmp	.-154    	; 0x17f4 <__addsf3+0x1e>
    188e:	93 95       	inc	r25
    1890:	88 0f       	add	r24, r24
    1892:	08 f0       	brcs	.+2      	; 0x1896 <__addsf3x+0x9e>
    1894:	99 27       	eor	r25, r25
    1896:	ee 0f       	add	r30, r30
    1898:	97 95       	ror	r25
    189a:	87 95       	ror	r24
    189c:	08 95       	ret

0000189e <cos>:
    189e:	83 d0       	rcall	.+262    	; 0x19a6 <__fp_rempio2>
    18a0:	e3 95       	inc	r30
    18a2:	b9 c0       	rjmp	.+370    	; 0x1a16 <__fp_sinus>

000018a4 <__fixunssfsi>:
    18a4:	d1 d0       	rcall	.+418    	; 0x1a48 <__fp_splitA>
    18a6:	88 f0       	brcs	.+34     	; 0x18ca <__fixunssfsi+0x26>
    18a8:	9f 57       	subi	r25, 0x7F	; 127
    18aa:	90 f0       	brcs	.+36     	; 0x18d0 <__fixunssfsi+0x2c>
    18ac:	b9 2f       	mov	r27, r25
    18ae:	99 27       	eor	r25, r25
    18b0:	b7 51       	subi	r27, 0x17	; 23
    18b2:	a0 f0       	brcs	.+40     	; 0x18dc <__fixunssfsi+0x38>
    18b4:	d1 f0       	breq	.+52     	; 0x18ea <__fixunssfsi+0x46>
    18b6:	66 0f       	add	r22, r22
    18b8:	77 1f       	adc	r23, r23
    18ba:	88 1f       	adc	r24, r24
    18bc:	99 1f       	adc	r25, r25
    18be:	1a f0       	brmi	.+6      	; 0x18c6 <__fixunssfsi+0x22>
    18c0:	ba 95       	dec	r27
    18c2:	c9 f7       	brne	.-14     	; 0x18b6 <__fixunssfsi+0x12>
    18c4:	12 c0       	rjmp	.+36     	; 0x18ea <__fixunssfsi+0x46>
    18c6:	b1 30       	cpi	r27, 0x01	; 1
    18c8:	81 f0       	breq	.+32     	; 0x18ea <__fixunssfsi+0x46>
    18ca:	d8 d0       	rcall	.+432    	; 0x1a7c <__fp_zero>
    18cc:	b1 e0       	ldi	r27, 0x01	; 1
    18ce:	08 95       	ret
    18d0:	d5 c0       	rjmp	.+426    	; 0x1a7c <__fp_zero>
    18d2:	67 2f       	mov	r22, r23
    18d4:	78 2f       	mov	r23, r24
    18d6:	88 27       	eor	r24, r24
    18d8:	b8 5f       	subi	r27, 0xF8	; 248
    18da:	39 f0       	breq	.+14     	; 0x18ea <__fixunssfsi+0x46>
    18dc:	b9 3f       	cpi	r27, 0xF9	; 249
    18de:	cc f3       	brlt	.-14     	; 0x18d2 <__fixunssfsi+0x2e>
    18e0:	86 95       	lsr	r24
    18e2:	77 95       	ror	r23
    18e4:	67 95       	ror	r22
    18e6:	b3 95       	inc	r27
    18e8:	d9 f7       	brne	.-10     	; 0x18e0 <__fixunssfsi+0x3c>
    18ea:	3e f4       	brtc	.+14     	; 0x18fa <__fixunssfsi+0x56>
    18ec:	90 95       	com	r25
    18ee:	80 95       	com	r24
    18f0:	70 95       	com	r23
    18f2:	61 95       	neg	r22
    18f4:	7f 4f       	sbci	r23, 0xFF	; 255
    18f6:	8f 4f       	sbci	r24, 0xFF	; 255
    18f8:	9f 4f       	sbci	r25, 0xFF	; 255
    18fa:	08 95       	ret

000018fc <__floatunsisf>:
    18fc:	e8 94       	clt
    18fe:	09 c0       	rjmp	.+18     	; 0x1912 <__floatsisf+0x12>

00001900 <__floatsisf>:
    1900:	97 fb       	bst	r25, 7
    1902:	3e f4       	brtc	.+14     	; 0x1912 <__floatsisf+0x12>
    1904:	90 95       	com	r25
    1906:	80 95       	com	r24
    1908:	70 95       	com	r23
    190a:	61 95       	neg	r22
    190c:	7f 4f       	sbci	r23, 0xFF	; 255
    190e:	8f 4f       	sbci	r24, 0xFF	; 255
    1910:	9f 4f       	sbci	r25, 0xFF	; 255
    1912:	99 23       	and	r25, r25
    1914:	a9 f0       	breq	.+42     	; 0x1940 <__floatsisf+0x40>
    1916:	f9 2f       	mov	r31, r25
    1918:	96 e9       	ldi	r25, 0x96	; 150
    191a:	bb 27       	eor	r27, r27
    191c:	93 95       	inc	r25
    191e:	f6 95       	lsr	r31
    1920:	87 95       	ror	r24
    1922:	77 95       	ror	r23
    1924:	67 95       	ror	r22
    1926:	b7 95       	ror	r27
    1928:	f1 11       	cpse	r31, r1
    192a:	f8 cf       	rjmp	.-16     	; 0x191c <__floatsisf+0x1c>
    192c:	fa f4       	brpl	.+62     	; 0x196c <__floatsisf+0x6c>
    192e:	bb 0f       	add	r27, r27
    1930:	11 f4       	brne	.+4      	; 0x1936 <__floatsisf+0x36>
    1932:	60 ff       	sbrs	r22, 0
    1934:	1b c0       	rjmp	.+54     	; 0x196c <__floatsisf+0x6c>
    1936:	6f 5f       	subi	r22, 0xFF	; 255
    1938:	7f 4f       	sbci	r23, 0xFF	; 255
    193a:	8f 4f       	sbci	r24, 0xFF	; 255
    193c:	9f 4f       	sbci	r25, 0xFF	; 255
    193e:	16 c0       	rjmp	.+44     	; 0x196c <__floatsisf+0x6c>
    1940:	88 23       	and	r24, r24
    1942:	11 f0       	breq	.+4      	; 0x1948 <__floatsisf+0x48>
    1944:	96 e9       	ldi	r25, 0x96	; 150
    1946:	11 c0       	rjmp	.+34     	; 0x196a <__floatsisf+0x6a>
    1948:	77 23       	and	r23, r23
    194a:	21 f0       	breq	.+8      	; 0x1954 <__floatsisf+0x54>
    194c:	9e e8       	ldi	r25, 0x8E	; 142
    194e:	87 2f       	mov	r24, r23
    1950:	76 2f       	mov	r23, r22
    1952:	05 c0       	rjmp	.+10     	; 0x195e <__floatsisf+0x5e>
    1954:	66 23       	and	r22, r22
    1956:	71 f0       	breq	.+28     	; 0x1974 <__floatsisf+0x74>
    1958:	96 e8       	ldi	r25, 0x86	; 134
    195a:	86 2f       	mov	r24, r22
    195c:	70 e0       	ldi	r23, 0x00	; 0
    195e:	60 e0       	ldi	r22, 0x00	; 0
    1960:	2a f0       	brmi	.+10     	; 0x196c <__floatsisf+0x6c>
    1962:	9a 95       	dec	r25
    1964:	66 0f       	add	r22, r22
    1966:	77 1f       	adc	r23, r23
    1968:	88 1f       	adc	r24, r24
    196a:	da f7       	brpl	.-10     	; 0x1962 <__floatsisf+0x62>
    196c:	88 0f       	add	r24, r24
    196e:	96 95       	lsr	r25
    1970:	87 95       	ror	r24
    1972:	97 f9       	bld	r25, 7
    1974:	08 95       	ret

00001976 <__fp_inf>:
    1976:	97 f9       	bld	r25, 7
    1978:	9f 67       	ori	r25, 0x7F	; 127
    197a:	80 e8       	ldi	r24, 0x80	; 128
    197c:	70 e0       	ldi	r23, 0x00	; 0
    197e:	60 e0       	ldi	r22, 0x00	; 0
    1980:	08 95       	ret

00001982 <__fp_nan>:
    1982:	9f ef       	ldi	r25, 0xFF	; 255
    1984:	80 ec       	ldi	r24, 0xC0	; 192
    1986:	08 95       	ret

00001988 <__fp_pscA>:
    1988:	00 24       	eor	r0, r0
    198a:	0a 94       	dec	r0
    198c:	16 16       	cp	r1, r22
    198e:	17 06       	cpc	r1, r23
    1990:	18 06       	cpc	r1, r24
    1992:	09 06       	cpc	r0, r25
    1994:	08 95       	ret

00001996 <__fp_pscB>:
    1996:	00 24       	eor	r0, r0
    1998:	0a 94       	dec	r0
    199a:	12 16       	cp	r1, r18
    199c:	13 06       	cpc	r1, r19
    199e:	14 06       	cpc	r1, r20
    19a0:	05 06       	cpc	r0, r21
    19a2:	08 95       	ret
    19a4:	ee cf       	rjmp	.-36     	; 0x1982 <__fp_nan>

000019a6 <__fp_rempio2>:
    19a6:	50 d0       	rcall	.+160    	; 0x1a48 <__fp_splitA>
    19a8:	e8 f3       	brcs	.-6      	; 0x19a4 <__fp_pscB+0xe>
    19aa:	e8 94       	clt
    19ac:	e0 e0       	ldi	r30, 0x00	; 0
    19ae:	bb 27       	eor	r27, r27
    19b0:	9f 57       	subi	r25, 0x7F	; 127
    19b2:	f0 f0       	brcs	.+60     	; 0x19f0 <__fp_rempio2+0x4a>
    19b4:	2a ed       	ldi	r18, 0xDA	; 218
    19b6:	3f e0       	ldi	r19, 0x0F	; 15
    19b8:	49 ec       	ldi	r20, 0xC9	; 201
    19ba:	06 c0       	rjmp	.+12     	; 0x19c8 <__fp_rempio2+0x22>
    19bc:	ee 0f       	add	r30, r30
    19be:	bb 0f       	add	r27, r27
    19c0:	66 1f       	adc	r22, r22
    19c2:	77 1f       	adc	r23, r23
    19c4:	88 1f       	adc	r24, r24
    19c6:	28 f0       	brcs	.+10     	; 0x19d2 <__fp_rempio2+0x2c>
    19c8:	b2 3a       	cpi	r27, 0xA2	; 162
    19ca:	62 07       	cpc	r22, r18
    19cc:	73 07       	cpc	r23, r19
    19ce:	84 07       	cpc	r24, r20
    19d0:	28 f0       	brcs	.+10     	; 0x19dc <__fp_rempio2+0x36>
    19d2:	b2 5a       	subi	r27, 0xA2	; 162
    19d4:	62 0b       	sbc	r22, r18
    19d6:	73 0b       	sbc	r23, r19
    19d8:	84 0b       	sbc	r24, r20
    19da:	e3 95       	inc	r30
    19dc:	9a 95       	dec	r25
    19de:	72 f7       	brpl	.-36     	; 0x19bc <__fp_rempio2+0x16>
    19e0:	80 38       	cpi	r24, 0x80	; 128
    19e2:	30 f4       	brcc	.+12     	; 0x19f0 <__fp_rempio2+0x4a>
    19e4:	9a 95       	dec	r25
    19e6:	bb 0f       	add	r27, r27
    19e8:	66 1f       	adc	r22, r22
    19ea:	77 1f       	adc	r23, r23
    19ec:	88 1f       	adc	r24, r24
    19ee:	d2 f7       	brpl	.-12     	; 0x19e4 <__fp_rempio2+0x3e>
    19f0:	90 48       	sbci	r25, 0x80	; 128
    19f2:	be c0       	rjmp	.+380    	; 0x1b70 <__fp_mpack_finite>

000019f4 <__fp_round>:
    19f4:	09 2e       	mov	r0, r25
    19f6:	03 94       	inc	r0
    19f8:	00 0c       	add	r0, r0
    19fa:	11 f4       	brne	.+4      	; 0x1a00 <__fp_round+0xc>
    19fc:	88 23       	and	r24, r24
    19fe:	52 f0       	brmi	.+20     	; 0x1a14 <__fp_round+0x20>
    1a00:	bb 0f       	add	r27, r27
    1a02:	40 f4       	brcc	.+16     	; 0x1a14 <__fp_round+0x20>
    1a04:	bf 2b       	or	r27, r31
    1a06:	11 f4       	brne	.+4      	; 0x1a0c <__fp_round+0x18>
    1a08:	60 ff       	sbrs	r22, 0
    1a0a:	04 c0       	rjmp	.+8      	; 0x1a14 <__fp_round+0x20>
    1a0c:	6f 5f       	subi	r22, 0xFF	; 255
    1a0e:	7f 4f       	sbci	r23, 0xFF	; 255
    1a10:	8f 4f       	sbci	r24, 0xFF	; 255
    1a12:	9f 4f       	sbci	r25, 0xFF	; 255
    1a14:	08 95       	ret

00001a16 <__fp_sinus>:
    1a16:	ef 93       	push	r30
    1a18:	e0 ff       	sbrs	r30, 0
    1a1a:	06 c0       	rjmp	.+12     	; 0x1a28 <__fp_sinus+0x12>
    1a1c:	a2 ea       	ldi	r26, 0xA2	; 162
    1a1e:	2a ed       	ldi	r18, 0xDA	; 218
    1a20:	3f e0       	ldi	r19, 0x0F	; 15
    1a22:	49 ec       	ldi	r20, 0xC9	; 201
    1a24:	5f eb       	ldi	r21, 0xBF	; 191
    1a26:	e8 de       	rcall	.-560    	; 0x17f8 <__addsf3x>
    1a28:	e5 df       	rcall	.-54     	; 0x19f4 <__fp_round>
    1a2a:	0f 90       	pop	r0
    1a2c:	03 94       	inc	r0
    1a2e:	01 fc       	sbrc	r0, 1
    1a30:	90 58       	subi	r25, 0x80	; 128
    1a32:	ee e6       	ldi	r30, 0x6E	; 110
    1a34:	f1 e0       	ldi	r31, 0x01	; 1
    1a36:	a8 c0       	rjmp	.+336    	; 0x1b88 <__fp_powsodd>

00001a38 <__fp_split3>:
    1a38:	57 fd       	sbrc	r21, 7
    1a3a:	90 58       	subi	r25, 0x80	; 128
    1a3c:	44 0f       	add	r20, r20
    1a3e:	55 1f       	adc	r21, r21
    1a40:	59 f0       	breq	.+22     	; 0x1a58 <__fp_splitA+0x10>
    1a42:	5f 3f       	cpi	r21, 0xFF	; 255
    1a44:	71 f0       	breq	.+28     	; 0x1a62 <__fp_splitA+0x1a>
    1a46:	47 95       	ror	r20

00001a48 <__fp_splitA>:
    1a48:	88 0f       	add	r24, r24
    1a4a:	97 fb       	bst	r25, 7
    1a4c:	99 1f       	adc	r25, r25
    1a4e:	61 f0       	breq	.+24     	; 0x1a68 <__fp_splitA+0x20>
    1a50:	9f 3f       	cpi	r25, 0xFF	; 255
    1a52:	79 f0       	breq	.+30     	; 0x1a72 <__fp_splitA+0x2a>
    1a54:	87 95       	ror	r24
    1a56:	08 95       	ret
    1a58:	12 16       	cp	r1, r18
    1a5a:	13 06       	cpc	r1, r19
    1a5c:	14 06       	cpc	r1, r20
    1a5e:	55 1f       	adc	r21, r21
    1a60:	f2 cf       	rjmp	.-28     	; 0x1a46 <__fp_split3+0xe>
    1a62:	46 95       	lsr	r20
    1a64:	f1 df       	rcall	.-30     	; 0x1a48 <__fp_splitA>
    1a66:	08 c0       	rjmp	.+16     	; 0x1a78 <__fp_splitA+0x30>
    1a68:	16 16       	cp	r1, r22
    1a6a:	17 06       	cpc	r1, r23
    1a6c:	18 06       	cpc	r1, r24
    1a6e:	99 1f       	adc	r25, r25
    1a70:	f1 cf       	rjmp	.-30     	; 0x1a54 <__fp_splitA+0xc>
    1a72:	86 95       	lsr	r24
    1a74:	71 05       	cpc	r23, r1
    1a76:	61 05       	cpc	r22, r1
    1a78:	08 94       	sec
    1a7a:	08 95       	ret

00001a7c <__fp_zero>:
    1a7c:	e8 94       	clt

00001a7e <__fp_szero>:
    1a7e:	bb 27       	eor	r27, r27
    1a80:	66 27       	eor	r22, r22
    1a82:	77 27       	eor	r23, r23
    1a84:	cb 01       	movw	r24, r22
    1a86:	97 f9       	bld	r25, 7
    1a88:	08 95       	ret

00001a8a <__mulsf3>:
    1a8a:	0a d0       	rcall	.+20     	; 0x1aa0 <__mulsf3x>
    1a8c:	b3 cf       	rjmp	.-154    	; 0x19f4 <__fp_round>
    1a8e:	7c df       	rcall	.-264    	; 0x1988 <__fp_pscA>
    1a90:	28 f0       	brcs	.+10     	; 0x1a9c <__mulsf3+0x12>
    1a92:	81 df       	rcall	.-254    	; 0x1996 <__fp_pscB>
    1a94:	18 f0       	brcs	.+6      	; 0x1a9c <__mulsf3+0x12>
    1a96:	95 23       	and	r25, r21
    1a98:	09 f0       	breq	.+2      	; 0x1a9c <__mulsf3+0x12>
    1a9a:	6d cf       	rjmp	.-294    	; 0x1976 <__fp_inf>
    1a9c:	72 cf       	rjmp	.-284    	; 0x1982 <__fp_nan>
    1a9e:	ef cf       	rjmp	.-34     	; 0x1a7e <__fp_szero>

00001aa0 <__mulsf3x>:
    1aa0:	cb df       	rcall	.-106    	; 0x1a38 <__fp_split3>
    1aa2:	a8 f3       	brcs	.-22     	; 0x1a8e <__mulsf3+0x4>

00001aa4 <__mulsf3_pse>:
    1aa4:	99 23       	and	r25, r25
    1aa6:	d9 f3       	breq	.-10     	; 0x1a9e <__mulsf3+0x14>
    1aa8:	55 23       	and	r21, r21
    1aaa:	c9 f3       	breq	.-14     	; 0x1a9e <__mulsf3+0x14>
    1aac:	95 0f       	add	r25, r21
    1aae:	50 e0       	ldi	r21, 0x00	; 0
    1ab0:	55 1f       	adc	r21, r21
    1ab2:	aa 27       	eor	r26, r26
    1ab4:	ee 27       	eor	r30, r30
    1ab6:	ff 27       	eor	r31, r31
    1ab8:	bb 27       	eor	r27, r27
    1aba:	00 24       	eor	r0, r0
    1abc:	08 94       	sec
    1abe:	67 95       	ror	r22
    1ac0:	20 f4       	brcc	.+8      	; 0x1aca <__mulsf3_pse+0x26>
    1ac2:	e2 0f       	add	r30, r18
    1ac4:	f3 1f       	adc	r31, r19
    1ac6:	b4 1f       	adc	r27, r20
    1ac8:	0a 1e       	adc	r0, r26
    1aca:	22 0f       	add	r18, r18
    1acc:	33 1f       	adc	r19, r19
    1ace:	44 1f       	adc	r20, r20
    1ad0:	aa 1f       	adc	r26, r26
    1ad2:	66 95       	lsr	r22
    1ad4:	a9 f7       	brne	.-22     	; 0x1ac0 <__mulsf3_pse+0x1c>
    1ad6:	77 95       	ror	r23
    1ad8:	30 f4       	brcc	.+12     	; 0x1ae6 <__mulsf3_pse+0x42>
    1ada:	f3 0f       	add	r31, r19
    1adc:	b4 1f       	adc	r27, r20
    1ade:	0a 1e       	adc	r0, r26
    1ae0:	12 1e       	adc	r1, r18
    1ae2:	08 f4       	brcc	.+2      	; 0x1ae6 <__mulsf3_pse+0x42>
    1ae4:	63 95       	inc	r22
    1ae6:	33 0f       	add	r19, r19
    1ae8:	44 1f       	adc	r20, r20
    1aea:	aa 1f       	adc	r26, r26
    1aec:	22 1f       	adc	r18, r18
    1aee:	76 95       	lsr	r23
    1af0:	99 f7       	brne	.-26     	; 0x1ad8 <__mulsf3_pse+0x34>
    1af2:	87 95       	ror	r24
    1af4:	20 f4       	brcc	.+8      	; 0x1afe <__mulsf3_pse+0x5a>
    1af6:	b4 0f       	add	r27, r20
    1af8:	0a 1e       	adc	r0, r26
    1afa:	12 1e       	adc	r1, r18
    1afc:	63 1f       	adc	r22, r19
    1afe:	44 0f       	add	r20, r20
    1b00:	aa 1f       	adc	r26, r26
    1b02:	22 1f       	adc	r18, r18
    1b04:	33 1f       	adc	r19, r19
    1b06:	86 95       	lsr	r24
    1b08:	a9 f7       	brne	.-22     	; 0x1af4 <__mulsf3_pse+0x50>
    1b0a:	86 2f       	mov	r24, r22
    1b0c:	71 2d       	mov	r23, r1
    1b0e:	60 2d       	mov	r22, r0
    1b10:	11 24       	eor	r1, r1
    1b12:	9f 57       	subi	r25, 0x7F	; 127
    1b14:	50 40       	sbci	r21, 0x00	; 0
    1b16:	8a f0       	brmi	.+34     	; 0x1b3a <__mulsf3_pse+0x96>
    1b18:	e1 f0       	breq	.+56     	; 0x1b52 <__mulsf3_pse+0xae>
    1b1a:	88 23       	and	r24, r24
    1b1c:	4a f0       	brmi	.+18     	; 0x1b30 <__mulsf3_pse+0x8c>
    1b1e:	ee 0f       	add	r30, r30
    1b20:	ff 1f       	adc	r31, r31
    1b22:	bb 1f       	adc	r27, r27
    1b24:	66 1f       	adc	r22, r22
    1b26:	77 1f       	adc	r23, r23
    1b28:	88 1f       	adc	r24, r24
    1b2a:	91 50       	subi	r25, 0x01	; 1
    1b2c:	50 40       	sbci	r21, 0x00	; 0
    1b2e:	a9 f7       	brne	.-22     	; 0x1b1a <__mulsf3_pse+0x76>
    1b30:	9e 3f       	cpi	r25, 0xFE	; 254
    1b32:	51 05       	cpc	r21, r1
    1b34:	70 f0       	brcs	.+28     	; 0x1b52 <__mulsf3_pse+0xae>
    1b36:	1f cf       	rjmp	.-450    	; 0x1976 <__fp_inf>
    1b38:	a2 cf       	rjmp	.-188    	; 0x1a7e <__fp_szero>
    1b3a:	5f 3f       	cpi	r21, 0xFF	; 255
    1b3c:	ec f3       	brlt	.-6      	; 0x1b38 <__mulsf3_pse+0x94>
    1b3e:	98 3e       	cpi	r25, 0xE8	; 232
    1b40:	dc f3       	brlt	.-10     	; 0x1b38 <__mulsf3_pse+0x94>
    1b42:	86 95       	lsr	r24
    1b44:	77 95       	ror	r23
    1b46:	67 95       	ror	r22
    1b48:	b7 95       	ror	r27
    1b4a:	f7 95       	ror	r31
    1b4c:	e7 95       	ror	r30
    1b4e:	9f 5f       	subi	r25, 0xFF	; 255
    1b50:	c1 f7       	brne	.-16     	; 0x1b42 <__mulsf3_pse+0x9e>
    1b52:	fe 2b       	or	r31, r30
    1b54:	88 0f       	add	r24, r24
    1b56:	91 1d       	adc	r25, r1
    1b58:	96 95       	lsr	r25
    1b5a:	87 95       	ror	r24
    1b5c:	97 f9       	bld	r25, 7
    1b5e:	08 95       	ret

00001b60 <sin>:
    1b60:	9f 93       	push	r25
    1b62:	21 df       	rcall	.-446    	; 0x19a6 <__fp_rempio2>
    1b64:	0f 90       	pop	r0
    1b66:	07 fc       	sbrc	r0, 7
    1b68:	ee 5f       	subi	r30, 0xFE	; 254
    1b6a:	55 cf       	rjmp	.-342    	; 0x1a16 <__fp_sinus>

00001b6c <__fp_mpack>:
    1b6c:	9f 3f       	cpi	r25, 0xFF	; 255
    1b6e:	31 f0       	breq	.+12     	; 0x1b7c <__fp_mpack_finite+0xc>

00001b70 <__fp_mpack_finite>:
    1b70:	91 50       	subi	r25, 0x01	; 1
    1b72:	20 f4       	brcc	.+8      	; 0x1b7c <__fp_mpack_finite+0xc>
    1b74:	87 95       	ror	r24
    1b76:	77 95       	ror	r23
    1b78:	67 95       	ror	r22
    1b7a:	b7 95       	ror	r27
    1b7c:	88 0f       	add	r24, r24
    1b7e:	91 1d       	adc	r25, r1
    1b80:	96 95       	lsr	r25
    1b82:	87 95       	ror	r24
    1b84:	97 f9       	bld	r25, 7
    1b86:	08 95       	ret

00001b88 <__fp_powsodd>:
    1b88:	9f 93       	push	r25
    1b8a:	8f 93       	push	r24
    1b8c:	7f 93       	push	r23
    1b8e:	6f 93       	push	r22
    1b90:	ff 93       	push	r31
    1b92:	ef 93       	push	r30
    1b94:	9b 01       	movw	r18, r22
    1b96:	ac 01       	movw	r20, r24
    1b98:	78 df       	rcall	.-272    	; 0x1a8a <__mulsf3>
    1b9a:	ef 91       	pop	r30
    1b9c:	ff 91       	pop	r31
    1b9e:	05 d0       	rcall	.+10     	; 0x1baa <__fp_powser>
    1ba0:	2f 91       	pop	r18
    1ba2:	3f 91       	pop	r19
    1ba4:	4f 91       	pop	r20
    1ba6:	5f 91       	pop	r21
    1ba8:	70 cf       	rjmp	.-288    	; 0x1a8a <__mulsf3>

00001baa <__fp_powser>:
    1baa:	df 93       	push	r29
    1bac:	cf 93       	push	r28
    1bae:	1f 93       	push	r17
    1bb0:	0f 93       	push	r16
    1bb2:	ff 92       	push	r15
    1bb4:	ef 92       	push	r14
    1bb6:	df 92       	push	r13
    1bb8:	7b 01       	movw	r14, r22
    1bba:	8c 01       	movw	r16, r24
    1bbc:	68 94       	set
    1bbe:	05 c0       	rjmp	.+10     	; 0x1bca <__fp_powser+0x20>
    1bc0:	da 2e       	mov	r13, r26
    1bc2:	ef 01       	movw	r28, r30
    1bc4:	6d df       	rcall	.-294    	; 0x1aa0 <__mulsf3x>
    1bc6:	fe 01       	movw	r30, r28
    1bc8:	e8 94       	clt
    1bca:	a5 91       	lpm	r26, Z+
    1bcc:	25 91       	lpm	r18, Z+
    1bce:	35 91       	lpm	r19, Z+
    1bd0:	45 91       	lpm	r20, Z+
    1bd2:	55 91       	lpm	r21, Z+
    1bd4:	ae f3       	brts	.-22     	; 0x1bc0 <__fp_powser+0x16>
    1bd6:	ef 01       	movw	r28, r30
    1bd8:	0f de       	rcall	.-994    	; 0x17f8 <__addsf3x>
    1bda:	fe 01       	movw	r30, r28
    1bdc:	97 01       	movw	r18, r14
    1bde:	a8 01       	movw	r20, r16
    1be0:	da 94       	dec	r13
    1be2:	79 f7       	brne	.-34     	; 0x1bc2 <__fp_powser+0x18>
    1be4:	df 90       	pop	r13
    1be6:	ef 90       	pop	r14
    1be8:	ff 90       	pop	r15
    1bea:	0f 91       	pop	r16
    1bec:	1f 91       	pop	r17
    1bee:	cf 91       	pop	r28
    1bf0:	df 91       	pop	r29
    1bf2:	08 95       	ret

00001bf4 <__mulqi3>:
    1bf4:	00 24       	eor	r0, r0

00001bf6 <__mulqi3_loop>:
    1bf6:	80 fd       	sbrc	r24, 0
    1bf8:	06 0e       	add	r0, r22
    1bfa:	66 0f       	add	r22, r22
    1bfc:	11 f0       	breq	.+4      	; 0x1c02 <__mulqi3_exit>
    1bfe:	86 95       	lsr	r24
    1c00:	d1 f7       	brne	.-12     	; 0x1bf6 <__mulqi3_loop>

00001c02 <__mulqi3_exit>:
    1c02:	80 2d       	mov	r24, r0
    1c04:	08 95       	ret

00001c06 <__udivmodsi4>:
    1c06:	a1 e2       	ldi	r26, 0x21	; 33
    1c08:	1a 2e       	mov	r1, r26
    1c0a:	aa 1b       	sub	r26, r26
    1c0c:	bb 1b       	sub	r27, r27
    1c0e:	fd 01       	movw	r30, r26
    1c10:	0d c0       	rjmp	.+26     	; 0x1c2c <__udivmodsi4_ep>

00001c12 <__udivmodsi4_loop>:
    1c12:	aa 1f       	adc	r26, r26
    1c14:	bb 1f       	adc	r27, r27
    1c16:	ee 1f       	adc	r30, r30
    1c18:	ff 1f       	adc	r31, r31
    1c1a:	a2 17       	cp	r26, r18
    1c1c:	b3 07       	cpc	r27, r19
    1c1e:	e4 07       	cpc	r30, r20
    1c20:	f5 07       	cpc	r31, r21
    1c22:	20 f0       	brcs	.+8      	; 0x1c2c <__udivmodsi4_ep>
    1c24:	a2 1b       	sub	r26, r18
    1c26:	b3 0b       	sbc	r27, r19
    1c28:	e4 0b       	sbc	r30, r20
    1c2a:	f5 0b       	sbc	r31, r21

00001c2c <__udivmodsi4_ep>:
    1c2c:	66 1f       	adc	r22, r22
    1c2e:	77 1f       	adc	r23, r23
    1c30:	88 1f       	adc	r24, r24
    1c32:	99 1f       	adc	r25, r25
    1c34:	1a 94       	dec	r1
    1c36:	69 f7       	brne	.-38     	; 0x1c12 <__udivmodsi4_loop>
    1c38:	60 95       	com	r22
    1c3a:	70 95       	com	r23
    1c3c:	80 95       	com	r24
    1c3e:	90 95       	com	r25
    1c40:	9b 01       	movw	r18, r22
    1c42:	ac 01       	movw	r20, r24
    1c44:	bd 01       	movw	r22, r26
    1c46:	cf 01       	movw	r24, r30
    1c48:	08 95       	ret

00001c4a <_exit>:
    1c4a:	f8 94       	cli

00001c4c <__stop_program>:
    1c4c:	ff cf       	rjmp	.-2      	; 0x1c4c <__stop_program>
